

Microchip MPLAB XC8 Assembler V2.40 build 20220703182018 
                                                                                               Wed Oct 12 18:25:34 2022

Microchip MPLAB XC8 C Compiler v2.40 (Free license) build 20220703182018 Og1 
     1                           	processor	12LF1571
     2                           	pagewidth 120
     3                           	opt	flic
     4                           	psect	nvBANK0,global,class=BANK0,space=1,delta=1,noexec
     5                           	psect	cinit,global,class=CODE,merge=1,delta=2
     6                           	psect	bssCOMMON,global,class=COMMON,space=1,delta=1,noexec
     7                           	psect	bssBANK0,global,class=BANK0,space=1,delta=1,noexec
     8                           	psect	clrtext,global,class=CODE,delta=2
     9                           	psect	cstackCOMMON,global,class=COMMON,space=1,delta=1,noexec
    10                           	psect	cstackBANK0,global,class=BANK0,space=1,delta=1,noexec
    11                           	psect	maintext,global,class=CODE,merge=1,split=1,delta=2
    12                           	psect	text1,local,class=CODE,merge=1,delta=2
    13                           	psect	text2,local,class=CODE,merge=1,delta=2
    14                           	psect	text3,local,class=CODE,merge=1,delta=2
    15                           	psect	text4,local,class=CODE,merge=1,delta=2
    16                           	psect	text5,local,class=CODE,merge=1,delta=2
    17                           	psect	text6,local,class=CODE,merge=1,delta=2
    18                           	psect	text7,local,class=CODE,merge=1,delta=2
    19                           	psect	text8,local,class=CODE,merge=1,delta=2
    20                           	psect	text9,local,class=CODE,merge=1,delta=2
    21                           	psect	text10,local,class=CODE,merge=1,delta=2
    22                           	psect	text11,local,class=CODE,merge=1,delta=2
    23                           	psect	text12,local,class=CODE,merge=1,delta=2
    24                           	psect	text13,local,class=CODE,merge=1,delta=2
    25                           	psect	text14,local,class=CODE,merge=1,delta=2
    26                           	psect	text15,local,class=CODE,merge=1,delta=2
    27                           	psect	text16,local,class=CODE,merge=1,delta=2,group=1
    28                           	psect	text17,local,class=CODE,merge=1,delta=2
    29                           	psect	text18,local,class=CODE,merge=1,delta=2
    30                           	psect	text19,local,class=CODE,merge=1,delta=2
    31                           	psect	text20,local,class=CODE,merge=1,delta=2
    32                           	psect	text21,local,class=CODE,merge=1,delta=2
    33                           	psect	text22,local,class=CODE,merge=1,delta=2
    34                           	psect	text23,local,class=CODE,merge=1,delta=2
    35                           	psect	text24,local,class=CODE,merge=1,delta=2
    36                           	psect	text25,local,class=CODE,merge=1,delta=2
    37                           	psect	text26,local,class=CODE,merge=1,delta=2
    38                           	psect	text27,local,class=CODE,merge=1,delta=2
    39                           	psect	intentry,global,class=CODE,delta=2
    40                           	psect	text29,local,class=CODE,merge=1,delta=2
    41                           	psect	text30,local,class=CODE,merge=1,delta=2
    42                           	psect	text31,local,class=CODE,merge=1,delta=2
    43                           	psect	text32,local,class=CODE,merge=1,delta=2
    44                           	psect	text33,local,class=CODE,merge=1,delta=2
    45                           	psect	idloc,global,abs,ovrld,class=IDLOC,space=5,delta=2,noexec
    46                           	psect	config,global,abs,ovrld,class=CONFIG,space=4,delta=2,noexec
    47                           	dabs	1,0x7E,2
    48     0000                     
    49                           ; Version 2.40
    50                           ; Generated 17/11/2021 GMT
    51                           ; 
    52                           ; Copyright © 2021, Microchip Technology Inc. and its subsidiaries ("Microchip")
    53                           ; All rights reserved.
    54                           ; 
    55                           ; This software is developed by Microchip Technology Inc. and its subsidiaries ("Microch
      +                          ip").
    56                           ; 
    57                           ; Redistribution and use in source and binary forms, with or without modification, are
    58                           ; permitted provided that the following conditions are met:
    59                           ; 
    60                           ;     1. Redistributions of source code must retain the above copyright notice, this lis
      +                          t of
    61                           ;        conditions and the following disclaimer.
    62                           ; 
    63                           ;     2. Redistributions in binary form must reproduce the above copyright notice, this 
      +                          list
    64                           ;        of conditions and the following disclaimer in the documentation and/or other
    65                           ;        materials provided with the distribution. Publication is not required when
    66                           ;        this file is used in an embedded application.
    67                           ; 
    68                           ;     3. Microchip's name may not be used to endorse or promote products derived from th
      +                          is
    69                           ;        software without specific prior written permission.
    70                           ; 
    71                           ; THIS SOFTWARE IS PROVIDED BY MICROCHIP "AS IS" AND ANY EXPRESS OR IMPLIED WARRANTIES,
    72                           ; INCLUDING, BUT NOT LIMITED TO, THE IMPLIED WARRANTIES OF MERCHANTABILITY AND FITNESS F
      +                          OR
    73                           ; PURPOSE ARE DISCLAIMED.  IN NO EVENT SHALL MICROCHIP BE LIABLE FOR ANY DIRECT, INDIREC
      +                          T,
    74                           ; INCIDENTAL, SPECIAL, EXEMPLARY, OR CONSEQUENTIAL DAMAGES (INCLUDING BUT NOT LIMITED TO
    75                           ; PROCUREMENT OF SUBSTITUTE GOODS OR SERVICES; LOSS OF USE, DATA OR PROFITS; OR BUSINESS
    76                           ; INTERRUPTION) HOWSOEVER CAUSED AND ON ANY THEORY OF LIABILITY, WHETHER IN CONTRACT, ST
      +                          RICT
    77                           ; LIABILITY, OR TORT (INCLUDING NEGLIGENCE OR OTHERWISE) ARISING IN ANY WAY OUT OF THE U
      +                          SE OF
    78                           ; THIS SOFTWARE, EVEN IF ADVISED OF THE POSSIBILITY OF SUCH DAMAGE.
    79                           ; 
    80                           ; 
    81                           ; Code-generator required, PIC12LF1571 Definitions
    82                           ; 
    83                           ; SFR Addresses
    84     0000                     	;# 
    85     0001                     	;# 
    86     0002                     	;# 
    87     0003                     	;# 
    88     0004                     	;# 
    89     0005                     	;# 
    90     0006                     	;# 
    91     0007                     	;# 
    92     0008                     	;# 
    93     0009                     	;# 
    94     000A                     	;# 
    95     000B                     	;# 
    96     000C                     	;# 
    97     0011                     	;# 
    98     0012                     	;# 
    99     0013                     	;# 
   100     0015                     	;# 
   101     0016                     	;# 
   102     0016                     	;# 
   103     0017                     	;# 
   104     0018                     	;# 
   105     0019                     	;# 
   106     001A                     	;# 
   107     001B                     	;# 
   108     001C                     	;# 
   109     008C                     	;# 
   110     0091                     	;# 
   111     0092                     	;# 
   112     0093                     	;# 
   113     0095                     	;# 
   114     0096                     	;# 
   115     0097                     	;# 
   116     0098                     	;# 
   117     0099                     	;# 
   118     009A                     	;# 
   119     009B                     	;# 
   120     009B                     	;# 
   121     009C                     	;# 
   122     009D                     	;# 
   123     009E                     	;# 
   124     009F                     	;# 
   125     010C                     	;# 
   126     0111                     	;# 
   127     0112                     	;# 
   128     0115                     	;# 
   129     0116                     	;# 
   130     0117                     	;# 
   131     0118                     	;# 
   132     0119                     	;# 
   133     011D                     	;# 
   134     011D                     	;# 
   135     018C                     	;# 
   136     0191                     	;# 
   137     0191                     	;# 
   138     0192                     	;# 
   139     0193                     	;# 
   140     0193                     	;# 
   141     0194                     	;# 
   142     0195                     	;# 
   143     0196                     	;# 
   144     020C                     	;# 
   145     028C                     	;# 
   146     030C                     	;# 
   147     038C                     	;# 
   148     0391                     	;# 
   149     0392                     	;# 
   150     0393                     	;# 
   151     0691                     	;# 
   152     0692                     	;# 
   153     0693                     	;# 
   154     0694                     	;# 
   155     0695                     	;# 
   156     0D8E                     	;# 
   157     0D8F                     	;# 
   158     0D90                     	;# 
   159     0D91                     	;# 
   160     0D91                     	;# 
   161     0D92                     	;# 
   162     0D93                     	;# 
   163     0D93                     	;# 
   164     0D94                     	;# 
   165     0D95                     	;# 
   166     0D95                     	;# 
   167     0D96                     	;# 
   168     0D97                     	;# 
   169     0D97                     	;# 
   170     0D98                     	;# 
   171     0D99                     	;# 
   172     0D99                     	;# 
   173     0D9A                     	;# 
   174     0D9B                     	;# 
   175     0D9C                     	;# 
   176     0D9C                     	;# 
   177     0D9D                     	;# 
   178     0D9D                     	;# 
   179     0D9E                     	;# 
   180     0D9F                     	;# 
   181     0DA0                     	;# 
   182     0DA1                     	;# 
   183     0DA1                     	;# 
   184     0DA2                     	;# 
   185     0DA3                     	;# 
   186     0DA3                     	;# 
   187     0DA4                     	;# 
   188     0DA5                     	;# 
   189     0DA5                     	;# 
   190     0DA6                     	;# 
   191     0DA7                     	;# 
   192     0DA7                     	;# 
   193     0DA8                     	;# 
   194     0DA9                     	;# 
   195     0DA9                     	;# 
   196     0DAA                     	;# 
   197     0DAB                     	;# 
   198     0DAC                     	;# 
   199     0DAC                     	;# 
   200     0DAD                     	;# 
   201     0DAD                     	;# 
   202     0DAE                     	;# 
   203     0DAF                     	;# 
   204     0DB0                     	;# 
   205     0DB1                     	;# 
   206     0DB1                     	;# 
   207     0DB2                     	;# 
   208     0DB3                     	;# 
   209     0DB3                     	;# 
   210     0DB4                     	;# 
   211     0DB5                     	;# 
   212     0DB5                     	;# 
   213     0DB6                     	;# 
   214     0DB7                     	;# 
   215     0DB7                     	;# 
   216     0DB8                     	;# 
   217     0DB9                     	;# 
   218     0DB9                     	;# 
   219     0DBA                     	;# 
   220     0DBB                     	;# 
   221     0DBC                     	;# 
   222     0DBC                     	;# 
   223     0DBD                     	;# 
   224     0DBD                     	;# 
   225     0DBE                     	;# 
   226     0DBF                     	;# 
   227     0DC0                     	;# 
   228     0FE4                     	;# 
   229     0FE5                     	;# 
   230     0FE6                     	;# 
   231     0FE7                     	;# 
   232     0FE8                     	;# 
   233     0FE8                     	;# 
   234     0FE9                     	;# 
   235     0FEA                     	;# 
   236     0FEA                     	;# 
   237     0FEB                     	;# 
   238     0FED                     	;# 
   239     0FEE                     	;# 
   240     0FEE                     	;# 
   241     0FEF                     	;# 
   242     0000                     	;# 
   243     0001                     	;# 
   244     0002                     	;# 
   245     0003                     	;# 
   246     0004                     	;# 
   247     0005                     	;# 
   248     0006                     	;# 
   249     0007                     	;# 
   250     0008                     	;# 
   251     0009                     	;# 
   252     000A                     	;# 
   253     000B                     	;# 
   254     000C                     	;# 
   255     0011                     	;# 
   256     0012                     	;# 
   257     0013                     	;# 
   258     0015                     	;# 
   259     0016                     	;# 
   260     0016                     	;# 
   261     0017                     	;# 
   262     0018                     	;# 
   263     0019                     	;# 
   264     001A                     	;# 
   265     001B                     	;# 
   266     001C                     	;# 
   267     008C                     	;# 
   268     0091                     	;# 
   269     0092                     	;# 
   270     0093                     	;# 
   271     0095                     	;# 
   272     0096                     	;# 
   273     0097                     	;# 
   274     0098                     	;# 
   275     0099                     	;# 
   276     009A                     	;# 
   277     009B                     	;# 
   278     009B                     	;# 
   279     009C                     	;# 
   280     009D                     	;# 
   281     009E                     	;# 
   282     009F                     	;# 
   283     010C                     	;# 
   284     0111                     	;# 
   285     0112                     	;# 
   286     0115                     	;# 
   287     0116                     	;# 
   288     0117                     	;# 
   289     0118                     	;# 
   290     0119                     	;# 
   291     011D                     	;# 
   292     011D                     	;# 
   293     018C                     	;# 
   294     0191                     	;# 
   295     0191                     	;# 
   296     0192                     	;# 
   297     0193                     	;# 
   298     0193                     	;# 
   299     0194                     	;# 
   300     0195                     	;# 
   301     0196                     	;# 
   302     020C                     	;# 
   303     028C                     	;# 
   304     030C                     	;# 
   305     038C                     	;# 
   306     0391                     	;# 
   307     0392                     	;# 
   308     0393                     	;# 
   309     0691                     	;# 
   310     0692                     	;# 
   311     0693                     	;# 
   312     0694                     	;# 
   313     0695                     	;# 
   314     0D8E                     	;# 
   315     0D8F                     	;# 
   316     0D90                     	;# 
   317     0D91                     	;# 
   318     0D91                     	;# 
   319     0D92                     	;# 
   320     0D93                     	;# 
   321     0D93                     	;# 
   322     0D94                     	;# 
   323     0D95                     	;# 
   324     0D95                     	;# 
   325     0D96                     	;# 
   326     0D97                     	;# 
   327     0D97                     	;# 
   328     0D98                     	;# 
   329     0D99                     	;# 
   330     0D99                     	;# 
   331     0D9A                     	;# 
   332     0D9B                     	;# 
   333     0D9C                     	;# 
   334     0D9C                     	;# 
   335     0D9D                     	;# 
   336     0D9D                     	;# 
   337     0D9E                     	;# 
   338     0D9F                     	;# 
   339     0DA0                     	;# 
   340     0DA1                     	;# 
   341     0DA1                     	;# 
   342     0DA2                     	;# 
   343     0DA3                     	;# 
   344     0DA3                     	;# 
   345     0DA4                     	;# 
   346     0DA5                     	;# 
   347     0DA5                     	;# 
   348     0DA6                     	;# 
   349     0DA7                     	;# 
   350     0DA7                     	;# 
   351     0DA8                     	;# 
   352     0DA9                     	;# 
   353     0DA9                     	;# 
   354     0DAA                     	;# 
   355     0DAB                     	;# 
   356     0DAC                     	;# 
   357     0DAC                     	;# 
   358     0DAD                     	;# 
   359     0DAD                     	;# 
   360     0DAE                     	;# 
   361     0DAF                     	;# 
   362     0DB0                     	;# 
   363     0DB1                     	;# 
   364     0DB1                     	;# 
   365     0DB2                     	;# 
   366     0DB3                     	;# 
   367     0DB3                     	;# 
   368     0DB4                     	;# 
   369     0DB5                     	;# 
   370     0DB5                     	;# 
   371     0DB6                     	;# 
   372     0DB7                     	;# 
   373     0DB7                     	;# 
   374     0DB8                     	;# 
   375     0DB9                     	;# 
   376     0DB9                     	;# 
   377     0DBA                     	;# 
   378     0DBB                     	;# 
   379     0DBC                     	;# 
   380     0DBC                     	;# 
   381     0DBD                     	;# 
   382     0DBD                     	;# 
   383     0DBE                     	;# 
   384     0DBF                     	;# 
   385     0DC0                     	;# 
   386     0FE4                     	;# 
   387     0FE5                     	;# 
   388     0FE6                     	;# 
   389     0FE7                     	;# 
   390     0FE8                     	;# 
   391     0FE8                     	;# 
   392     0FE9                     	;# 
   393     0FEA                     	;# 
   394     0FEA                     	;# 
   395     0FEB                     	;# 
   396     0FED                     	;# 
   397     0FEE                     	;# 
   398     0FEE                     	;# 
   399     0FEF                     	;# 
   400     0000                     	;# 
   401     0001                     	;# 
   402     0002                     	;# 
   403     0003                     	;# 
   404     0004                     	;# 
   405     0005                     	;# 
   406     0006                     	;# 
   407     0007                     	;# 
   408     0008                     	;# 
   409     0009                     	;# 
   410     000A                     	;# 
   411     000B                     	;# 
   412     000C                     	;# 
   413     0011                     	;# 
   414     0012                     	;# 
   415     0013                     	;# 
   416     0015                     	;# 
   417     0016                     	;# 
   418     0016                     	;# 
   419     0017                     	;# 
   420     0018                     	;# 
   421     0019                     	;# 
   422     001A                     	;# 
   423     001B                     	;# 
   424     001C                     	;# 
   425     008C                     	;# 
   426     0091                     	;# 
   427     0092                     	;# 
   428     0093                     	;# 
   429     0095                     	;# 
   430     0096                     	;# 
   431     0097                     	;# 
   432     0098                     	;# 
   433     0099                     	;# 
   434     009A                     	;# 
   435     009B                     	;# 
   436     009B                     	;# 
   437     009C                     	;# 
   438     009D                     	;# 
   439     009E                     	;# 
   440     009F                     	;# 
   441     010C                     	;# 
   442     0111                     	;# 
   443     0112                     	;# 
   444     0115                     	;# 
   445     0116                     	;# 
   446     0117                     	;# 
   447     0118                     	;# 
   448     0119                     	;# 
   449     011D                     	;# 
   450     011D                     	;# 
   451     018C                     	;# 
   452     0191                     	;# 
   453     0191                     	;# 
   454     0192                     	;# 
   455     0193                     	;# 
   456     0193                     	;# 
   457     0194                     	;# 
   458     0195                     	;# 
   459     0196                     	;# 
   460     020C                     	;# 
   461     028C                     	;# 
   462     030C                     	;# 
   463     038C                     	;# 
   464     0391                     	;# 
   465     0392                     	;# 
   466     0393                     	;# 
   467     0691                     	;# 
   468     0692                     	;# 
   469     0693                     	;# 
   470     0694                     	;# 
   471     0695                     	;# 
   472     0D8E                     	;# 
   473     0D8F                     	;# 
   474     0D90                     	;# 
   475     0D91                     	;# 
   476     0D91                     	;# 
   477     0D92                     	;# 
   478     0D93                     	;# 
   479     0D93                     	;# 
   480     0D94                     	;# 
   481     0D95                     	;# 
   482     0D95                     	;# 
   483     0D96                     	;# 
   484     0D97                     	;# 
   485     0D97                     	;# 
   486     0D98                     	;# 
   487     0D99                     	;# 
   488     0D99                     	;# 
   489     0D9A                     	;# 
   490     0D9B                     	;# 
   491     0D9C                     	;# 
   492     0D9C                     	;# 
   493     0D9D                     	;# 
   494     0D9D                     	;# 
   495     0D9E                     	;# 
   496     0D9F                     	;# 
   497     0DA0                     	;# 
   498     0DA1                     	;# 
   499     0DA1                     	;# 
   500     0DA2                     	;# 
   501     0DA3                     	;# 
   502     0DA3                     	;# 
   503     0DA4                     	;# 
   504     0DA5                     	;# 
   505     0DA5                     	;# 
   506     0DA6                     	;# 
   507     0DA7                     	;# 
   508     0DA7                     	;# 
   509     0DA8                     	;# 
   510     0DA9                     	;# 
   511     0DA9                     	;# 
   512     0DAA                     	;# 
   513     0DAB                     	;# 
   514     0DAC                     	;# 
   515     0DAC                     	;# 
   516     0DAD                     	;# 
   517     0DAD                     	;# 
   518     0DAE                     	;# 
   519     0DAF                     	;# 
   520     0DB0                     	;# 
   521     0DB1                     	;# 
   522     0DB1                     	;# 
   523     0DB2                     	;# 
   524     0DB3                     	;# 
   525     0DB3                     	;# 
   526     0DB4                     	;# 
   527     0DB5                     	;# 
   528     0DB5                     	;# 
   529     0DB6                     	;# 
   530     0DB7                     	;# 
   531     0DB7                     	;# 
   532     0DB8                     	;# 
   533     0DB9                     	;# 
   534     0DB9                     	;# 
   535     0DBA                     	;# 
   536     0DBB                     	;# 
   537     0DBC                     	;# 
   538     0DBC                     	;# 
   539     0DBD                     	;# 
   540     0DBD                     	;# 
   541     0DBE                     	;# 
   542     0DBF                     	;# 
   543     0DC0                     	;# 
   544     0FE4                     	;# 
   545     0FE5                     	;# 
   546     0FE6                     	;# 
   547     0FE7                     	;# 
   548     0FE8                     	;# 
   549     0FE8                     	;# 
   550     0FE9                     	;# 
   551     0FEA                     	;# 
   552     0FEA                     	;# 
   553     0FEB                     	;# 
   554     0FED                     	;# 
   555     0FEE                     	;# 
   556     0FEE                     	;# 
   557     0FEF                     	;# 
   558     0000                     	;# 
   559     0001                     	;# 
   560     0002                     	;# 
   561     0003                     	;# 
   562     0004                     	;# 
   563     0005                     	;# 
   564     0006                     	;# 
   565     0007                     	;# 
   566     0008                     	;# 
   567     0009                     	;# 
   568     000A                     	;# 
   569     000B                     	;# 
   570     000C                     	;# 
   571     0011                     	;# 
   572     0012                     	;# 
   573     0013                     	;# 
   574     0015                     	;# 
   575     0016                     	;# 
   576     0016                     	;# 
   577     0017                     	;# 
   578     0018                     	;# 
   579     0019                     	;# 
   580     001A                     	;# 
   581     001B                     	;# 
   582     001C                     	;# 
   583     008C                     	;# 
   584     0091                     	;# 
   585     0092                     	;# 
   586     0093                     	;# 
   587     0095                     	;# 
   588     0096                     	;# 
   589     0097                     	;# 
   590     0098                     	;# 
   591     0099                     	;# 
   592     009A                     	;# 
   593     009B                     	;# 
   594     009B                     	;# 
   595     009C                     	;# 
   596     009D                     	;# 
   597     009E                     	;# 
   598     009F                     	;# 
   599     010C                     	;# 
   600     0111                     	;# 
   601     0112                     	;# 
   602     0115                     	;# 
   603     0116                     	;# 
   604     0117                     	;# 
   605     0118                     	;# 
   606     0119                     	;# 
   607     011D                     	;# 
   608     011D                     	;# 
   609     018C                     	;# 
   610     0191                     	;# 
   611     0191                     	;# 
   612     0192                     	;# 
   613     0193                     	;# 
   614     0193                     	;# 
   615     0194                     	;# 
   616     0195                     	;# 
   617     0196                     	;# 
   618     020C                     	;# 
   619     028C                     	;# 
   620     030C                     	;# 
   621     038C                     	;# 
   622     0391                     	;# 
   623     0392                     	;# 
   624     0393                     	;# 
   625     0691                     	;# 
   626     0692                     	;# 
   627     0693                     	;# 
   628     0694                     	;# 
   629     0695                     	;# 
   630     0D8E                     	;# 
   631     0D8F                     	;# 
   632     0D90                     	;# 
   633     0D91                     	;# 
   634     0D91                     	;# 
   635     0D92                     	;# 
   636     0D93                     	;# 
   637     0D93                     	;# 
   638     0D94                     	;# 
   639     0D95                     	;# 
   640     0D95                     	;# 
   641     0D96                     	;# 
   642     0D97                     	;# 
   643     0D97                     	;# 
   644     0D98                     	;# 
   645     0D99                     	;# 
   646     0D99                     	;# 
   647     0D9A                     	;# 
   648     0D9B                     	;# 
   649     0D9C                     	;# 
   650     0D9C                     	;# 
   651     0D9D                     	;# 
   652     0D9D                     	;# 
   653     0D9E                     	;# 
   654     0D9F                     	;# 
   655     0DA0                     	;# 
   656     0DA1                     	;# 
   657     0DA1                     	;# 
   658     0DA2                     	;# 
   659     0DA3                     	;# 
   660     0DA3                     	;# 
   661     0DA4                     	;# 
   662     0DA5                     	;# 
   663     0DA5                     	;# 
   664     0DA6                     	;# 
   665     0DA7                     	;# 
   666     0DA7                     	;# 
   667     0DA8                     	;# 
   668     0DA9                     	;# 
   669     0DA9                     	;# 
   670     0DAA                     	;# 
   671     0DAB                     	;# 
   672     0DAC                     	;# 
   673     0DAC                     	;# 
   674     0DAD                     	;# 
   675     0DAD                     	;# 
   676     0DAE                     	;# 
   677     0DAF                     	;# 
   678     0DB0                     	;# 
   679     0DB1                     	;# 
   680     0DB1                     	;# 
   681     0DB2                     	;# 
   682     0DB3                     	;# 
   683     0DB3                     	;# 
   684     0DB4                     	;# 
   685     0DB5                     	;# 
   686     0DB5                     	;# 
   687     0DB6                     	;# 
   688     0DB7                     	;# 
   689     0DB7                     	;# 
   690     0DB8                     	;# 
   691     0DB9                     	;# 
   692     0DB9                     	;# 
   693     0DBA                     	;# 
   694     0DBB                     	;# 
   695     0DBC                     	;# 
   696     0DBC                     	;# 
   697     0DBD                     	;# 
   698     0DBD                     	;# 
   699     0DBE                     	;# 
   700     0DBF                     	;# 
   701     0DC0                     	;# 
   702     0FE4                     	;# 
   703     0FE5                     	;# 
   704     0FE6                     	;# 
   705     0FE7                     	;# 
   706     0FE8                     	;# 
   707     0FE8                     	;# 
   708     0FE9                     	;# 
   709     0FEA                     	;# 
   710     0FEA                     	;# 
   711     0FEB                     	;# 
   712     0FED                     	;# 
   713     0FEE                     	;# 
   714     0FEE                     	;# 
   715     0FEF                     	;# 
   716     0000                     	;# 
   717     0001                     	;# 
   718     0002                     	;# 
   719     0003                     	;# 
   720     0004                     	;# 
   721     0005                     	;# 
   722     0006                     	;# 
   723     0007                     	;# 
   724     0008                     	;# 
   725     0009                     	;# 
   726     000A                     	;# 
   727     000B                     	;# 
   728     000C                     	;# 
   729     0011                     	;# 
   730     0012                     	;# 
   731     0013                     	;# 
   732     0015                     	;# 
   733     0016                     	;# 
   734     0016                     	;# 
   735     0017                     	;# 
   736     0018                     	;# 
   737     0019                     	;# 
   738     001A                     	;# 
   739     001B                     	;# 
   740     001C                     	;# 
   741     008C                     	;# 
   742     0091                     	;# 
   743     0092                     	;# 
   744     0093                     	;# 
   745     0095                     	;# 
   746     0096                     	;# 
   747     0097                     	;# 
   748     0098                     	;# 
   749     0099                     	;# 
   750     009A                     	;# 
   751     009B                     	;# 
   752     009B                     	;# 
   753     009C                     	;# 
   754     009D                     	;# 
   755     009E                     	;# 
   756     009F                     	;# 
   757     010C                     	;# 
   758     0111                     	;# 
   759     0112                     	;# 
   760     0115                     	;# 
   761     0116                     	;# 
   762     0117                     	;# 
   763     0118                     	;# 
   764     0119                     	;# 
   765     011D                     	;# 
   766     011D                     	;# 
   767     018C                     	;# 
   768     0191                     	;# 
   769     0191                     	;# 
   770     0192                     	;# 
   771     0193                     	;# 
   772     0193                     	;# 
   773     0194                     	;# 
   774     0195                     	;# 
   775     0196                     	;# 
   776     020C                     	;# 
   777     028C                     	;# 
   778     030C                     	;# 
   779     038C                     	;# 
   780     0391                     	;# 
   781     0392                     	;# 
   782     0393                     	;# 
   783     0691                     	;# 
   784     0692                     	;# 
   785     0693                     	;# 
   786     0694                     	;# 
   787     0695                     	;# 
   788     0D8E                     	;# 
   789     0D8F                     	;# 
   790     0D90                     	;# 
   791     0D91                     	;# 
   792     0D91                     	;# 
   793     0D92                     	;# 
   794     0D93                     	;# 
   795     0D93                     	;# 
   796     0D94                     	;# 
   797     0D95                     	;# 
   798     0D95                     	;# 
   799     0D96                     	;# 
   800     0D97                     	;# 
   801     0D97                     	;# 
   802     0D98                     	;# 
   803     0D99                     	;# 
   804     0D99                     	;# 
   805     0D9A                     	;# 
   806     0D9B                     	;# 
   807     0D9C                     	;# 
   808     0D9C                     	;# 
   809     0D9D                     	;# 
   810     0D9D                     	;# 
   811     0D9E                     	;# 
   812     0D9F                     	;# 
   813     0DA0                     	;# 
   814     0DA1                     	;# 
   815     0DA1                     	;# 
   816     0DA2                     	;# 
   817     0DA3                     	;# 
   818     0DA3                     	;# 
   819     0DA4                     	;# 
   820     0DA5                     	;# 
   821     0DA5                     	;# 
   822     0DA6                     	;# 
   823     0DA7                     	;# 
   824     0DA7                     	;# 
   825     0DA8                     	;# 
   826     0DA9                     	;# 
   827     0DA9                     	;# 
   828     0DAA                     	;# 
   829     0DAB                     	;# 
   830     0DAC                     	;# 
   831     0DAC                     	;# 
   832     0DAD                     	;# 
   833     0DAD                     	;# 
   834     0DAE                     	;# 
   835     0DAF                     	;# 
   836     0DB0                     	;# 
   837     0DB1                     	;# 
   838     0DB1                     	;# 
   839     0DB2                     	;# 
   840     0DB3                     	;# 
   841     0DB3                     	;# 
   842     0DB4                     	;# 
   843     0DB5                     	;# 
   844     0DB5                     	;# 
   845     0DB6                     	;# 
   846     0DB7                     	;# 
   847     0DB7                     	;# 
   848     0DB8                     	;# 
   849     0DB9                     	;# 
   850     0DB9                     	;# 
   851     0DBA                     	;# 
   852     0DBB                     	;# 
   853     0DBC                     	;# 
   854     0DBC                     	;# 
   855     0DBD                     	;# 
   856     0DBD                     	;# 
   857     0DBE                     	;# 
   858     0DBF                     	;# 
   859     0DC0                     	;# 
   860     0FE4                     	;# 
   861     0FE5                     	;# 
   862     0FE6                     	;# 
   863     0FE7                     	;# 
   864     0FE8                     	;# 
   865     0FE8                     	;# 
   866     0FE9                     	;# 
   867     0FEA                     	;# 
   868     0FEA                     	;# 
   869     0FEB                     	;# 
   870     0FED                     	;# 
   871     0FEE                     	;# 
   872     0FEE                     	;# 
   873     0FEF                     	;# 
   874     0000                     	;# 
   875     0001                     	;# 
   876     0002                     	;# 
   877     0003                     	;# 
   878     0004                     	;# 
   879     0005                     	;# 
   880     0006                     	;# 
   881     0007                     	;# 
   882     0008                     	;# 
   883     0009                     	;# 
   884     000A                     	;# 
   885     000B                     	;# 
   886     000C                     	;# 
   887     0011                     	;# 
   888     0012                     	;# 
   889     0013                     	;# 
   890     0015                     	;# 
   891     0016                     	;# 
   892     0016                     	;# 
   893     0017                     	;# 
   894     0018                     	;# 
   895     0019                     	;# 
   896     001A                     	;# 
   897     001B                     	;# 
   898     001C                     	;# 
   899     008C                     	;# 
   900     0091                     	;# 
   901     0092                     	;# 
   902     0093                     	;# 
   903     0095                     	;# 
   904     0096                     	;# 
   905     0097                     	;# 
   906     0098                     	;# 
   907     0099                     	;# 
   908     009A                     	;# 
   909     009B                     	;# 
   910     009B                     	;# 
   911     009C                     	;# 
   912     009D                     	;# 
   913     009E                     	;# 
   914     009F                     	;# 
   915     010C                     	;# 
   916     0111                     	;# 
   917     0112                     	;# 
   918     0115                     	;# 
   919     0116                     	;# 
   920     0117                     	;# 
   921     0118                     	;# 
   922     0119                     	;# 
   923     011D                     	;# 
   924     011D                     	;# 
   925     018C                     	;# 
   926     0191                     	;# 
   927     0191                     	;# 
   928     0192                     	;# 
   929     0193                     	;# 
   930     0193                     	;# 
   931     0194                     	;# 
   932     0195                     	;# 
   933     0196                     	;# 
   934     020C                     	;# 
   935     028C                     	;# 
   936     030C                     	;# 
   937     038C                     	;# 
   938     0391                     	;# 
   939     0392                     	;# 
   940     0393                     	;# 
   941     0691                     	;# 
   942     0692                     	;# 
   943     0693                     	;# 
   944     0694                     	;# 
   945     0695                     	;# 
   946     0D8E                     	;# 
   947     0D8F                     	;# 
   948     0D90                     	;# 
   949     0D91                     	;# 
   950     0D91                     	;# 
   951     0D92                     	;# 
   952     0D93                     	;# 
   953     0D93                     	;# 
   954     0D94                     	;# 
   955     0D95                     	;# 
   956     0D95                     	;# 
   957     0D96                     	;# 
   958     0D97                     	;# 
   959     0D97                     	;# 
   960     0D98                     	;# 
   961     0D99                     	;# 
   962     0D99                     	;# 
   963     0D9A                     	;# 
   964     0D9B                     	;# 
   965     0D9C                     	;# 
   966     0D9C                     	;# 
   967     0D9D                     	;# 
   968     0D9D                     	;# 
   969     0D9E                     	;# 
   970     0D9F                     	;# 
   971     0DA0                     	;# 
   972     0DA1                     	;# 
   973     0DA1                     	;# 
   974     0DA2                     	;# 
   975     0DA3                     	;# 
   976     0DA3                     	;# 
   977     0DA4                     	;# 
   978     0DA5                     	;# 
   979     0DA5                     	;# 
   980     0DA6                     	;# 
   981     0DA7                     	;# 
   982     0DA7                     	;# 
   983     0DA8                     	;# 
   984     0DA9                     	;# 
   985     0DA9                     	;# 
   986     0DAA                     	;# 
   987     0DAB                     	;# 
   988     0DAC                     	;# 
   989     0DAC                     	;# 
   990     0DAD                     	;# 
   991     0DAD                     	;# 
   992     0DAE                     	;# 
   993     0DAF                     	;# 
   994     0DB0                     	;# 
   995     0DB1                     	;# 
   996     0DB1                     	;# 
   997     0DB2                     	;# 
   998     0DB3                     	;# 
   999     0DB3                     	;# 
  1000     0DB4                     	;# 
  1001     0DB5                     	;# 
  1002     0DB5                     	;# 
  1003     0DB6                     	;# 
  1004     0DB7                     	;# 
  1005     0DB7                     	;# 
  1006     0DB8                     	;# 
  1007     0DB9                     	;# 
  1008     0DB9                     	;# 
  1009     0DBA                     	;# 
  1010     0DBB                     	;# 
  1011     0DBC                     	;# 
  1012     0DBC                     	;# 
  1013     0DBD                     	;# 
  1014     0DBD                     	;# 
  1015     0DBE                     	;# 
  1016     0DBF                     	;# 
  1017     0DC0                     	;# 
  1018     0FE4                     	;# 
  1019     0FE5                     	;# 
  1020     0FE6                     	;# 
  1021     0FE7                     	;# 
  1022     0FE8                     	;# 
  1023     0FE8                     	;# 
  1024     0FE9                     	;# 
  1025     0FEA                     	;# 
  1026     0FEA                     	;# 
  1027     0FEB                     	;# 
  1028     0FED                     	;# 
  1029     0FEE                     	;# 
  1030     0FEE                     	;# 
  1031     0FEF                     	;# 
  1032     0000                     	;# 
  1033     0001                     	;# 
  1034     0002                     	;# 
  1035     0003                     	;# 
  1036     0004                     	;# 
  1037     0005                     	;# 
  1038     0006                     	;# 
  1039     0007                     	;# 
  1040     0008                     	;# 
  1041     0009                     	;# 
  1042     000A                     	;# 
  1043     000B                     	;# 
  1044     000C                     	;# 
  1045     0011                     	;# 
  1046     0012                     	;# 
  1047     0013                     	;# 
  1048     0015                     	;# 
  1049     0016                     	;# 
  1050     0016                     	;# 
  1051     0017                     	;# 
  1052     0018                     	;# 
  1053     0019                     	;# 
  1054     001A                     	;# 
  1055     001B                     	;# 
  1056     001C                     	;# 
  1057     008C                     	;# 
  1058     0091                     	;# 
  1059     0092                     	;# 
  1060     0093                     	;# 
  1061     0095                     	;# 
  1062     0096                     	;# 
  1063     0097                     	;# 
  1064     0098                     	;# 
  1065     0099                     	;# 
  1066     009A                     	;# 
  1067     009B                     	;# 
  1068     009B                     	;# 
  1069     009C                     	;# 
  1070     009D                     	;# 
  1071     009E                     	;# 
  1072     009F                     	;# 
  1073     010C                     	;# 
  1074     0111                     	;# 
  1075     0112                     	;# 
  1076     0115                     	;# 
  1077     0116                     	;# 
  1078     0117                     	;# 
  1079     0118                     	;# 
  1080     0119                     	;# 
  1081     011D                     	;# 
  1082     011D                     	;# 
  1083     018C                     	;# 
  1084     0191                     	;# 
  1085     0191                     	;# 
  1086     0192                     	;# 
  1087     0193                     	;# 
  1088     0193                     	;# 
  1089     0194                     	;# 
  1090     0195                     	;# 
  1091     0196                     	;# 
  1092     020C                     	;# 
  1093     028C                     	;# 
  1094     030C                     	;# 
  1095     038C                     	;# 
  1096     0391                     	;# 
  1097     0392                     	;# 
  1098     0393                     	;# 
  1099     0691                     	;# 
  1100     0692                     	;# 
  1101     0693                     	;# 
  1102     0694                     	;# 
  1103     0695                     	;# 
  1104     0D8E                     	;# 
  1105     0D8F                     	;# 
  1106     0D90                     	;# 
  1107     0D91                     	;# 
  1108     0D91                     	;# 
  1109     0D92                     	;# 
  1110     0D93                     	;# 
  1111     0D93                     	;# 
  1112     0D94                     	;# 
  1113     0D95                     	;# 
  1114     0D95                     	;# 
  1115     0D96                     	;# 
  1116     0D97                     	;# 
  1117     0D97                     	;# 
  1118     0D98                     	;# 
  1119     0D99                     	;# 
  1120     0D99                     	;# 
  1121     0D9A                     	;# 
  1122     0D9B                     	;# 
  1123     0D9C                     	;# 
  1124     0D9C                     	;# 
  1125     0D9D                     	;# 
  1126     0D9D                     	;# 
  1127     0D9E                     	;# 
  1128     0D9F                     	;# 
  1129     0DA0                     	;# 
  1130     0DA1                     	;# 
  1131     0DA1                     	;# 
  1132     0DA2                     	;# 
  1133     0DA3                     	;# 
  1134     0DA3                     	;# 
  1135     0DA4                     	;# 
  1136     0DA5                     	;# 
  1137     0DA5                     	;# 
  1138     0DA6                     	;# 
  1139     0DA7                     	;# 
  1140     0DA7                     	;# 
  1141     0DA8                     	;# 
  1142     0DA9                     	;# 
  1143     0DA9                     	;# 
  1144     0DAA                     	;# 
  1145     0DAB                     	;# 
  1146     0DAC                     	;# 
  1147     0DAC                     	;# 
  1148     0DAD                     	;# 
  1149     0DAD                     	;# 
  1150     0DAE                     	;# 
  1151     0DAF                     	;# 
  1152     0DB0                     	;# 
  1153     0DB1                     	;# 
  1154     0DB1                     	;# 
  1155     0DB2                     	;# 
  1156     0DB3                     	;# 
  1157     0DB3                     	;# 
  1158     0DB4                     	;# 
  1159     0DB5                     	;# 
  1160     0DB5                     	;# 
  1161     0DB6                     	;# 
  1162     0DB7                     	;# 
  1163     0DB7                     	;# 
  1164     0DB8                     	;# 
  1165     0DB9                     	;# 
  1166     0DB9                     	;# 
  1167     0DBA                     	;# 
  1168     0DBB                     	;# 
  1169     0DBC                     	;# 
  1170     0DBC                     	;# 
  1171     0DBD                     	;# 
  1172     0DBD                     	;# 
  1173     0DBE                     	;# 
  1174     0DBF                     	;# 
  1175     0DC0                     	;# 
  1176     0FE4                     	;# 
  1177     0FE5                     	;# 
  1178     0FE6                     	;# 
  1179     0FE7                     	;# 
  1180     0FE8                     	;# 
  1181     0FE8                     	;# 
  1182     0FE9                     	;# 
  1183     0FEA                     	;# 
  1184     0FEA                     	;# 
  1185     0FEB                     	;# 
  1186     0FED                     	;# 
  1187     0FEE                     	;# 
  1188     0FEE                     	;# 
  1189     0FEF                     	;# 
  1190     0000                     	;# 
  1191     0001                     	;# 
  1192     0002                     	;# 
  1193     0003                     	;# 
  1194     0004                     	;# 
  1195     0005                     	;# 
  1196     0006                     	;# 
  1197     0007                     	;# 
  1198     0008                     	;# 
  1199     0009                     	;# 
  1200     000A                     	;# 
  1201     000B                     	;# 
  1202     000C                     	;# 
  1203     0011                     	;# 
  1204     0012                     	;# 
  1205     0013                     	;# 
  1206     0015                     	;# 
  1207     0016                     	;# 
  1208     0016                     	;# 
  1209     0017                     	;# 
  1210     0018                     	;# 
  1211     0019                     	;# 
  1212     001A                     	;# 
  1213     001B                     	;# 
  1214     001C                     	;# 
  1215     008C                     	;# 
  1216     0091                     	;# 
  1217     0092                     	;# 
  1218     0093                     	;# 
  1219     0095                     	;# 
  1220     0096                     	;# 
  1221     0097                     	;# 
  1222     0098                     	;# 
  1223     0099                     	;# 
  1224     009A                     	;# 
  1225     009B                     	;# 
  1226     009B                     	;# 
  1227     009C                     	;# 
  1228     009D                     	;# 
  1229     009E                     	;# 
  1230     009F                     	;# 
  1231     010C                     	;# 
  1232     0111                     	;# 
  1233     0112                     	;# 
  1234     0115                     	;# 
  1235     0116                     	;# 
  1236     0117                     	;# 
  1237     0118                     	;# 
  1238     0119                     	;# 
  1239     011D                     	;# 
  1240     011D                     	;# 
  1241     018C                     	;# 
  1242     0191                     	;# 
  1243     0191                     	;# 
  1244     0192                     	;# 
  1245     0193                     	;# 
  1246     0193                     	;# 
  1247     0194                     	;# 
  1248     0195                     	;# 
  1249     0196                     	;# 
  1250     020C                     	;# 
  1251     028C                     	;# 
  1252     030C                     	;# 
  1253     038C                     	;# 
  1254     0391                     	;# 
  1255     0392                     	;# 
  1256     0393                     	;# 
  1257     0691                     	;# 
  1258     0692                     	;# 
  1259     0693                     	;# 
  1260     0694                     	;# 
  1261     0695                     	;# 
  1262     0D8E                     	;# 
  1263     0D8F                     	;# 
  1264     0D90                     	;# 
  1265     0D91                     	;# 
  1266     0D91                     	;# 
  1267     0D92                     	;# 
  1268     0D93                     	;# 
  1269     0D93                     	;# 
  1270     0D94                     	;# 
  1271     0D95                     	;# 
  1272     0D95                     	;# 
  1273     0D96                     	;# 
  1274     0D97                     	;# 
  1275     0D97                     	;# 
  1276     0D98                     	;# 
  1277     0D99                     	;# 
  1278     0D99                     	;# 
  1279     0D9A                     	;# 
  1280     0D9B                     	;# 
  1281     0D9C                     	;# 
  1282     0D9C                     	;# 
  1283     0D9D                     	;# 
  1284     0D9D                     	;# 
  1285     0D9E                     	;# 
  1286     0D9F                     	;# 
  1287     0DA0                     	;# 
  1288     0DA1                     	;# 
  1289     0DA1                     	;# 
  1290     0DA2                     	;# 
  1291     0DA3                     	;# 
  1292     0DA3                     	;# 
  1293     0DA4                     	;# 
  1294     0DA5                     	;# 
  1295     0DA5                     	;# 
  1296     0DA6                     	;# 
  1297     0DA7                     	;# 
  1298     0DA7                     	;# 
  1299     0DA8                     	;# 
  1300     0DA9                     	;# 
  1301     0DA9                     	;# 
  1302     0DAA                     	;# 
  1303     0DAB                     	;# 
  1304     0DAC                     	;# 
  1305     0DAC                     	;# 
  1306     0DAD                     	;# 
  1307     0DAD                     	;# 
  1308     0DAE                     	;# 
  1309     0DAF                     	;# 
  1310     0DB0                     	;# 
  1311     0DB1                     	;# 
  1312     0DB1                     	;# 
  1313     0DB2                     	;# 
  1314     0DB3                     	;# 
  1315     0DB3                     	;# 
  1316     0DB4                     	;# 
  1317     0DB5                     	;# 
  1318     0DB5                     	;# 
  1319     0DB6                     	;# 
  1320     0DB7                     	;# 
  1321     0DB7                     	;# 
  1322     0DB8                     	;# 
  1323     0DB9                     	;# 
  1324     0DB9                     	;# 
  1325     0DBA                     	;# 
  1326     0DBB                     	;# 
  1327     0DBC                     	;# 
  1328     0DBC                     	;# 
  1329     0DBD                     	;# 
  1330     0DBD                     	;# 
  1331     0DBE                     	;# 
  1332     0DBF                     	;# 
  1333     0DC0                     	;# 
  1334     0FE4                     	;# 
  1335     0FE5                     	;# 
  1336     0FE6                     	;# 
  1337     0FE7                     	;# 
  1338     0FE8                     	;# 
  1339     0FE8                     	;# 
  1340     0FE9                     	;# 
  1341     0FEA                     	;# 
  1342     0FEA                     	;# 
  1343     0FEB                     	;# 
  1344     0FED                     	;# 
  1345     0FEE                     	;# 
  1346     0FEE                     	;# 
  1347     0FEF                     	;# 
  1348     0000                     	;# 
  1349     0001                     	;# 
  1350     0002                     	;# 
  1351     0003                     	;# 
  1352     0004                     	;# 
  1353     0005                     	;# 
  1354     0006                     	;# 
  1355     0007                     	;# 
  1356     0008                     	;# 
  1357     0009                     	;# 
  1358     000A                     	;# 
  1359     000B                     	;# 
  1360     000C                     	;# 
  1361     0011                     	;# 
  1362     0012                     	;# 
  1363     0013                     	;# 
  1364     0015                     	;# 
  1365     0016                     	;# 
  1366     0016                     	;# 
  1367     0017                     	;# 
  1368     0018                     	;# 
  1369     0019                     	;# 
  1370     001A                     	;# 
  1371     001B                     	;# 
  1372     001C                     	;# 
  1373     008C                     	;# 
  1374     0091                     	;# 
  1375     0092                     	;# 
  1376     0093                     	;# 
  1377     0095                     	;# 
  1378     0096                     	;# 
  1379     0097                     	;# 
  1380     0098                     	;# 
  1381     0099                     	;# 
  1382     009A                     	;# 
  1383     009B                     	;# 
  1384     009B                     	;# 
  1385     009C                     	;# 
  1386     009D                     	;# 
  1387     009E                     	;# 
  1388     009F                     	;# 
  1389     010C                     	;# 
  1390     0111                     	;# 
  1391     0112                     	;# 
  1392     0115                     	;# 
  1393     0116                     	;# 
  1394     0117                     	;# 
  1395     0118                     	;# 
  1396     0119                     	;# 
  1397     011D                     	;# 
  1398     011D                     	;# 
  1399     018C                     	;# 
  1400     0191                     	;# 
  1401     0191                     	;# 
  1402     0192                     	;# 
  1403     0193                     	;# 
  1404     0193                     	;# 
  1405     0194                     	;# 
  1406     0195                     	;# 
  1407     0196                     	;# 
  1408     020C                     	;# 
  1409     028C                     	;# 
  1410     030C                     	;# 
  1411     038C                     	;# 
  1412     0391                     	;# 
  1413     0392                     	;# 
  1414     0393                     	;# 
  1415     0691                     	;# 
  1416     0692                     	;# 
  1417     0693                     	;# 
  1418     0694                     	;# 
  1419     0695                     	;# 
  1420     0D8E                     	;# 
  1421     0D8F                     	;# 
  1422     0D90                     	;# 
  1423     0D91                     	;# 
  1424     0D91                     	;# 
  1425     0D92                     	;# 
  1426     0D93                     	;# 
  1427     0D93                     	;# 
  1428     0D94                     	;# 
  1429     0D95                     	;# 
  1430     0D95                     	;# 
  1431     0D96                     	;# 
  1432     0D97                     	;# 
  1433     0D97                     	;# 
  1434     0D98                     	;# 
  1435     0D99                     	;# 
  1436     0D99                     	;# 
  1437     0D9A                     	;# 
  1438     0D9B                     	;# 
  1439     0D9C                     	;# 
  1440     0D9C                     	;# 
  1441     0D9D                     	;# 
  1442     0D9D                     	;# 
  1443     0D9E                     	;# 
  1444     0D9F                     	;# 
  1445     0DA0                     	;# 
  1446     0DA1                     	;# 
  1447     0DA1                     	;# 
  1448     0DA2                     	;# 
  1449     0DA3                     	;# 
  1450     0DA3                     	;# 
  1451     0DA4                     	;# 
  1452     0DA5                     	;# 
  1453     0DA5                     	;# 
  1454     0DA6                     	;# 
  1455     0DA7                     	;# 
  1456     0DA7                     	;# 
  1457     0DA8                     	;# 
  1458     0DA9                     	;# 
  1459     0DA9                     	;# 
  1460     0DAA                     	;# 
  1461     0DAB                     	;# 
  1462     0DAC                     	;# 
  1463     0DAC                     	;# 
  1464     0DAD                     	;# 
  1465     0DAD                     	;# 
  1466     0DAE                     	;# 
  1467     0DAF                     	;# 
  1468     0DB0                     	;# 
  1469     0DB1                     	;# 
  1470     0DB1                     	;# 
  1471     0DB2                     	;# 
  1472     0DB3                     	;# 
  1473     0DB3                     	;# 
  1474     0DB4                     	;# 
  1475     0DB5                     	;# 
  1476     0DB5                     	;# 
  1477     0DB6                     	;# 
  1478     0DB7                     	;# 
  1479     0DB7                     	;# 
  1480     0DB8                     	;# 
  1481     0DB9                     	;# 
  1482     0DB9                     	;# 
  1483     0DBA                     	;# 
  1484     0DBB                     	;# 
  1485     0DBC                     	;# 
  1486     0DBC                     	;# 
  1487     0DBD                     	;# 
  1488     0DBD                     	;# 
  1489     0DBE                     	;# 
  1490     0DBF                     	;# 
  1491     0DC0                     	;# 
  1492     0FE4                     	;# 
  1493     0FE5                     	;# 
  1494     0FE6                     	;# 
  1495     0FE7                     	;# 
  1496     0FE8                     	;# 
  1497     0FE8                     	;# 
  1498     0FE9                     	;# 
  1499     0FEA                     	;# 
  1500     0FEA                     	;# 
  1501     0FEB                     	;# 
  1502     0FED                     	;# 
  1503     0FEE                     	;# 
  1504     0FEE                     	;# 
  1505     0FEF                     	;# 
  1506     0000                     	;# 
  1507     0001                     	;# 
  1508     0002                     	;# 
  1509     0003                     	;# 
  1510     0004                     	;# 
  1511     0005                     	;# 
  1512     0006                     	;# 
  1513     0007                     	;# 
  1514     0008                     	;# 
  1515     0009                     	;# 
  1516     000A                     	;# 
  1517     000B                     	;# 
  1518     000C                     	;# 
  1519     0011                     	;# 
  1520     0012                     	;# 
  1521     0013                     	;# 
  1522     0015                     	;# 
  1523     0016                     	;# 
  1524     0016                     	;# 
  1525     0017                     	;# 
  1526     0018                     	;# 
  1527     0019                     	;# 
  1528     001A                     	;# 
  1529     001B                     	;# 
  1530     001C                     	;# 
  1531     008C                     	;# 
  1532     0091                     	;# 
  1533     0092                     	;# 
  1534     0093                     	;# 
  1535     0095                     	;# 
  1536     0096                     	;# 
  1537     0097                     	;# 
  1538     0098                     	;# 
  1539     0099                     	;# 
  1540     009A                     	;# 
  1541     009B                     	;# 
  1542     009B                     	;# 
  1543     009C                     	;# 
  1544     009D                     	;# 
  1545     009E                     	;# 
  1546     009F                     	;# 
  1547     010C                     	;# 
  1548     0111                     	;# 
  1549     0112                     	;# 
  1550     0115                     	;# 
  1551     0116                     	;# 
  1552     0117                     	;# 
  1553     0118                     	;# 
  1554     0119                     	;# 
  1555     011D                     	;# 
  1556     011D                     	;# 
  1557     018C                     	;# 
  1558     0191                     	;# 
  1559     0191                     	;# 
  1560     0192                     	;# 
  1561     0193                     	;# 
  1562     0193                     	;# 
  1563     0194                     	;# 
  1564     0195                     	;# 
  1565     0196                     	;# 
  1566     020C                     	;# 
  1567     028C                     	;# 
  1568     030C                     	;# 
  1569     038C                     	;# 
  1570     0391                     	;# 
  1571     0392                     	;# 
  1572     0393                     	;# 
  1573     0691                     	;# 
  1574     0692                     	;# 
  1575     0693                     	;# 
  1576     0694                     	;# 
  1577     0695                     	;# 
  1578     0D8E                     	;# 
  1579     0D8F                     	;# 
  1580     0D90                     	;# 
  1581     0D91                     	;# 
  1582     0D91                     	;# 
  1583     0D92                     	;# 
  1584     0D93                     	;# 
  1585     0D93                     	;# 
  1586     0D94                     	;# 
  1587     0D95                     	;# 
  1588     0D95                     	;# 
  1589     0D96                     	;# 
  1590     0D97                     	;# 
  1591     0D97                     	;# 
  1592     0D98                     	;# 
  1593     0D99                     	;# 
  1594     0D99                     	;# 
  1595     0D9A                     	;# 
  1596     0D9B                     	;# 
  1597     0D9C                     	;# 
  1598     0D9C                     	;# 
  1599     0D9D                     	;# 
  1600     0D9D                     	;# 
  1601     0D9E                     	;# 
  1602     0D9F                     	;# 
  1603     0DA0                     	;# 
  1604     0DA1                     	;# 
  1605     0DA1                     	;# 
  1606     0DA2                     	;# 
  1607     0DA3                     	;# 
  1608     0DA3                     	;# 
  1609     0DA4                     	;# 
  1610     0DA5                     	;# 
  1611     0DA5                     	;# 
  1612     0DA6                     	;# 
  1613     0DA7                     	;# 
  1614     0DA7                     	;# 
  1615     0DA8                     	;# 
  1616     0DA9                     	;# 
  1617     0DA9                     	;# 
  1618     0DAA                     	;# 
  1619     0DAB                     	;# 
  1620     0DAC                     	;# 
  1621     0DAC                     	;# 
  1622     0DAD                     	;# 
  1623     0DAD                     	;# 
  1624     0DAE                     	;# 
  1625     0DAF                     	;# 
  1626     0DB0                     	;# 
  1627     0DB1                     	;# 
  1628     0DB1                     	;# 
  1629     0DB2                     	;# 
  1630     0DB3                     	;# 
  1631     0DB3                     	;# 
  1632     0DB4                     	;# 
  1633     0DB5                     	;# 
  1634     0DB5                     	;# 
  1635     0DB6                     	;# 
  1636     0DB7                     	;# 
  1637     0DB7                     	;# 
  1638     0DB8                     	;# 
  1639     0DB9                     	;# 
  1640     0DB9                     	;# 
  1641     0DBA                     	;# 
  1642     0DBB                     	;# 
  1643     0DBC                     	;# 
  1644     0DBC                     	;# 
  1645     0DBD                     	;# 
  1646     0DBD                     	;# 
  1647     0DBE                     	;# 
  1648     0DBF                     	;# 
  1649     0DC0                     	;# 
  1650     0FE4                     	;# 
  1651     0FE5                     	;# 
  1652     0FE6                     	;# 
  1653     0FE7                     	;# 
  1654     0FE8                     	;# 
  1655     0FE8                     	;# 
  1656     0FE9                     	;# 
  1657     0FEA                     	;# 
  1658     0FEA                     	;# 
  1659     0FEB                     	;# 
  1660     0FED                     	;# 
  1661     0FEE                     	;# 
  1662     0FEE                     	;# 
  1663     0FEF                     	;# 
  1664                           
  1665                           	psect	nvBANK0
  1666     002E                     __pnvBANK0:
  1667     002E                     _TMR1_InterruptHandler:
  1668     002E                     	ds	2
  1669     0030                     _timer1ReloadVal:
  1670     0030                     	ds	2
  1671     000C                     _PORTAbits	set	12
  1672     000B                     _INTCONbits	set	11
  1673     0019                     _T1GCONbits	set	25
  1674     0018                     _T1CONbits	set	24
  1675     0018                     _T1CON	set	24
  1676     0016                     _TMR1L	set	22
  1677     0017                     _TMR1H	set	23
  1678     0019                     _T1GCON	set	25
  1679     001C                     _T2CONbits	set	28
  1680     001C                     _T2CON	set	28
  1681     0011                     _PIR1bits	set	17
  1682     001A                     _TMR2	set	26
  1683     001B                     _PR2	set	27
  1684     0091                     _PIE1bits	set	145
  1685     0097                     _WDTCON	set	151
  1686     0098                     _OSCTUNE	set	152
  1687     0099                     _OSCCON	set	153
  1688     0095                     _OPTION_REGbits	set	149
  1689     008C                     _TRISA	set	140
  1690     0116                     _BORCON	set	278
  1691     011D                     _APFCON	set	285
  1692     010C                     _LATA	set	268
  1693     018C                     _ANSELA	set	396
  1694     020C                     _WPUAbits	set	524
  1695     020C                     _WPUA	set	524
  1696     028C                     _ODCONA	set	652
  1697     030C                     _SLRCONA	set	780
  1698     038C                     _INLVLA	set	908
  1699     0DAD                     _PWM2INTFbits	set	3501
  1700     0DAF                     _PWM2LDCONbits	set	3503
  1701     0DAB                     _PWM2CONbits	set	3499
  1702     0DAB                     _PWM2CON	set	3499
  1703     0DA9                     _PWM2TMRL	set	3497
  1704     0DAA                     _PWM2TMRH	set	3498
  1705     0DA7                     _PWM2OFL	set	3495
  1706     0DA8                     _PWM2OFH	set	3496
  1707     0DA5                     _PWM2PRL	set	3493
  1708     0DA6                     _PWM2PRH	set	3494
  1709     0DA3                     _PWM2DCL	set	3491
  1710     0DA4                     _PWM2DCH	set	3492
  1711     0DA1                     _PWM2PHL	set	3489
  1712     0DA2                     _PWM2PHH	set	3490
  1713     0DB0                     _PWM2OFCON	set	3504
  1714     0DAF                     _PWM2LDCON	set	3503
  1715     0DAE                     _PWM2CLKCON	set	3502
  1716     0DAD                     _PWM2INTF	set	3501
  1717     0DAC                     _PWM2INTE	set	3500
  1718     0DBD                     _PWM3INTFbits	set	3517
  1719     0DBF                     _PWM3LDCONbits	set	3519
  1720     0DBB                     _PWM3CONbits	set	3515
  1721     0DBB                     _PWM3CON	set	3515
  1722     0DB9                     _PWM3TMRL	set	3513
  1723     0DBA                     _PWM3TMRH	set	3514
  1724     0DB7                     _PWM3OFL	set	3511
  1725     0DB8                     _PWM3OFH	set	3512
  1726     0DB5                     _PWM3PRL	set	3509
  1727     0DB6                     _PWM3PRH	set	3510
  1728     0DB3                     _PWM3DCL	set	3507
  1729     0DB4                     _PWM3DCH	set	3508
  1730     0DB1                     _PWM3PHL	set	3505
  1731     0DB2                     _PWM3PHH	set	3506
  1732     0DC0                     _PWM3OFCON	set	3520
  1733     0DBF                     _PWM3LDCON	set	3519
  1734     0DBE                     _PWM3CLKCON	set	3518
  1735     0DBD                     _PWM3INTF	set	3517
  1736     0DBC                     _PWM3INTE	set	3516
  1737     0D9D                     _PWM1INTFbits	set	3485
  1738     0D9F                     _PWM1LDCONbits	set	3487
  1739     0D9B                     _PWM1CONbits	set	3483
  1740     0D9B                     _PWM1CON	set	3483
  1741     0D99                     _PWM1TMRL	set	3481
  1742     0D9A                     _PWM1TMRH	set	3482
  1743     0D97                     _PWM1OFL	set	3479
  1744     0D98                     _PWM1OFH	set	3480
  1745     0D95                     _PWM1PRL	set	3477
  1746     0D96                     _PWM1PRH	set	3478
  1747     0D93                     _PWM1DCL	set	3475
  1748     0D94                     _PWM1DCH	set	3476
  1749     0D91                     _PWM1PHL	set	3473
  1750     0D92                     _PWM1PHH	set	3474
  1751     0DA0                     _PWM1OFCON	set	3488
  1752     0D9F                     _PWM1LDCON	set	3487
  1753     0D9E                     _PWM1CLKCON	set	3486
  1754     0D9D                     _PWM1INTF	set	3485
  1755     0D9C                     _PWM1INTE	set	3484
  1756                           
  1757                           	psect	cinit
  1758     001A                     start_initialization:	
  1759                           ; #config settings
  1760                           
  1761     001A                     __initialization:
  1762                           
  1763                           ; Clear objects allocated to COMMON
  1764     001A  01FA               	clrf	__pbssCOMMON& (0+127)
  1765     001B  01FB               	clrf	(__pbssCOMMON+1)& (0+127)
  1766                           
  1767                           ; Clear objects allocated to BANK0
  1768     001C  3020               	movlw	low __pbssBANK0
  1769     001D  0084               	movwf	4
  1770     001E  3000               	movlw	high __pbssBANK0
  1771     001F  0085               	movwf	5
  1772     0020  300E               	movlw	14
  1773     0021  3182  22BF  3180   	fcall	clear_ram0
  1774     0024                     end_of_initialization:	
  1775                           ;End of C runtime variable initialization code
  1776                           
  1777     0024                     __end_of__initialization:
  1778     0024  107E               	bcf	int$flags,0	;clear compiler interrupt flag (level 1)
  1779     0025  0020               	movlb	0
  1780     0026  2A62               	ljmp	_main	;jump to C main() function
  1781                           
  1782                           	psect	bssCOMMON
  1783     007A                     __pbssCOMMON:
  1784     007A                     appHandler@debounceBuffer:
  1785     007A                     	ds	1
  1786     007B                     _currentState:
  1787     007B                     	ds	1
  1788                           
  1789                           	psect	bssBANK0
  1790     0020                     __pbssBANK0:
  1791     0020                     _led:
  1792     0020                     	ds	6
  1793     0026                     _timeInState:
  1794     0026                     	ds	4
  1795     002A                     appHandler@requestedNumberOfBlinks:
  1796     002A                     	ds	1
  1797     002B                     _isCaught:
  1798     002B                     	ds	1
  1799     002C                     _btnTicks:
  1800     002C                     	ds	1
  1801     002D                     _currentBlinkState:
  1802     002D                     	ds	1
  1803                           
  1804                           	psect	clrtext
  1805     02BF                     clear_ram0:	
  1806                           ;	Called with FSR0 containing the base address, and
  1807                           ;	WREG with the size to clear
  1808                           
  1809     02BF  0064               	clrwdt	;clear the watchdog before getting into this loop
  1810     02C0                     clrloop0:
  1811     02C0  0180               	clrf	0	;clear RAM location pointed to by FSR
  1812     02C1  3101               	addfsr 0,1
  1813     02C2  0B89               	decfsz	9,f	;Have we reached the end of clearing yet?
  1814     02C3  2AC0               	goto	clrloop0	;have we reached the end yet?
  1815     02C4  3400               	retlw	0	;all done for this memory range, return
  1816                           
  1817                           	psect	cstackCOMMON
  1818     0070                     __pcstackCOMMON:
  1819     0070                     ?_OSCILLATOR_Initialize:
  1820     0070                     ?_WDT_Initialize:	
  1821                           ; 1 bytes @ 0x0
  1822                           
  1823     0070                     ?_PWM1_Initialize:	
  1824                           ; 1 bytes @ 0x0
  1825                           
  1826     0070                     ?_PWM2_Initialize:	
  1827                           ; 1 bytes @ 0x0
  1828                           
  1829     0070                     ?_PWM3_Initialize:	
  1830                           ; 1 bytes @ 0x0
  1831                           
  1832     0070                     ?_TMR1_Initialize:	
  1833                           ; 1 bytes @ 0x0
  1834                           
  1835     0070                     ?_TMR1_DefaultInterruptHandler:	
  1836                           ; 1 bytes @ 0x0
  1837                           
  1838     0070                     ??_TMR1_DefaultInterruptHandler:	
  1839                           ; 1 bytes @ 0x0
  1840                           
  1841     0070                     ?_TMR1_CallBack:	
  1842                           ; 1 bytes @ 0x0
  1843                           
  1844     0070                     ?_appInit:	
  1845                           ; 1 bytes @ 0x0
  1846                           
  1847     0070                     ?_appHandler:	
  1848                           ; 1 bytes @ 0x0
  1849                           
  1850     0070                     ?_msTick:	
  1851                           ; 1 bytes @ 0x0
  1852                           
  1853     0070                     ??_msTick:	
  1854                           ; 1 bytes @ 0x0
  1855                           
  1856     0070                     ?_refreshColor:	
  1857                           ; 1 bytes @ 0x0
  1858                           
  1859     0070                     ?_PIN_MANAGER_Initialize:	
  1860                           ; 1 bytes @ 0x0
  1861                           
  1862     0070                     ?_TMR2_Initialize:	
  1863                           ; 1 bytes @ 0x0
  1864                           
  1865     0070                     ?_TMR2_StartTimer:	
  1866                           ; 1 bytes @ 0x0
  1867                           
  1868     0070                     ?_SYSTEM_Initialize:	
  1869                           ; 1 bytes @ 0x0
  1870                           
  1871     0070                     ?_TMR1_WriteTimer:	
  1872                           ; 1 bytes @ 0x0
  1873                           
  1874     0070                     ?_TMR1_ISR:	
  1875                           ; 1 bytes @ 0x0
  1876                           
  1877     0070                     ?_INTERRUPT_InterruptManager:	
  1878                           ; 1 bytes @ 0x0
  1879                           
  1880     0070                     ?_PWM1_Start:	
  1881                           ; 1 bytes @ 0x0
  1882                           
  1883     0070                     ?_PWM1_Stop:	
  1884                           ; 1 bytes @ 0x0
  1885                           
  1886     0070                     ?_PWM3_Start:	
  1887                           ; 1 bytes @ 0x0
  1888                           
  1889     0070                     ?_PWM3_Stop:	
  1890                           ; 1 bytes @ 0x0
  1891                           
  1892     0070                     ?_PWM2_Start:	
  1893                           ; 1 bytes @ 0x0
  1894                           
  1895     0070                     ?_PWM2_Stop:	
  1896                           ; 1 bytes @ 0x0
  1897                           
  1898     0070                     ?_main:	
  1899                           ; 1 bytes @ 0x0
  1900                           
  1901     0070                     TMR1_WriteTimer@timerVal:	
  1902                           ; 1 bytes @ 0x0
  1903                           
  1904                           
  1905                           ; 2 bytes @ 0x0
  1906     0070                     	ds	1
  1907     0071                     ??_TMR1_CallBack:
  1908                           
  1909                           ; 1 bytes @ 0x1
  1910     0071                     	ds	1
  1911     0072                     ??_OSCILLATOR_Initialize:
  1912     0072                     ??_WDT_Initialize:	
  1913                           ; 1 bytes @ 0x2
  1914                           
  1915     0072                     ??_PWM1_Initialize:	
  1916                           ; 1 bytes @ 0x2
  1917                           
  1918     0072                     ??_PWM2_Initialize:	
  1919                           ; 1 bytes @ 0x2
  1920                           
  1921     0072                     ??_PWM3_Initialize:	
  1922                           ; 1 bytes @ 0x2
  1923                           
  1924     0072                     ?_TMR1_SetInterruptHandler:	
  1925                           ; 1 bytes @ 0x2
  1926                           
  1927     0072                     ?_setColors:	
  1928                           ; 1 bytes @ 0x2
  1929                           
  1930     0072                     ?_initBlink:	
  1931                           ; 1 bytes @ 0x2
  1932                           
  1933     0072                     ??_PIN_MANAGER_Initialize:	
  1934                           ; 1 bytes @ 0x2
  1935                           
  1936     0072                     ??_TMR2_Initialize:	
  1937                           ; 1 bytes @ 0x2
  1938                           
  1939     0072                     ??_TMR2_StartTimer:	
  1940                           ; 1 bytes @ 0x2
  1941                           
  1942     0072                     ??_TMR1_WriteTimer:	
  1943                           ; 1 bytes @ 0x2
  1944                           
  1945     0072                     ??_TMR1_ISR:	
  1946                           ; 1 bytes @ 0x2
  1947                           
  1948     0072                     ??_INTERRUPT_InterruptManager:	
  1949                           ; 1 bytes @ 0x2
  1950                           
  1951     0072                     ??_PWM1_Start:	
  1952                           ; 1 bytes @ 0x2
  1953                           
  1954     0072                     ??_PWM1_Stop:	
  1955                           ; 1 bytes @ 0x2
  1956                           
  1957     0072                     ?_PWM1_DutyCycleSet:	
  1958                           ; 1 bytes @ 0x2
  1959                           
  1960     0072                     ??_PWM3_Start:	
  1961                           ; 1 bytes @ 0x2
  1962                           
  1963     0072                     ??_PWM3_Stop:	
  1964                           ; 1 bytes @ 0x2
  1965                           
  1966     0072                     ?_PWM3_DutyCycleSet:	
  1967                           ; 1 bytes @ 0x2
  1968                           
  1969     0072                     ??_PWM2_Start:	
  1970                           ; 1 bytes @ 0x2
  1971                           
  1972     0072                     ??_PWM2_Stop:	
  1973                           ; 1 bytes @ 0x2
  1974                           
  1975     0072                     ?_PWM2_DutyCycleSet:	
  1976                           ; 1 bytes @ 0x2
  1977                           
  1978     0072                     ?_blinkHandler:	
  1979                           ; 1 bytes @ 0x2
  1980                           
  1981     0072                     ?___llmod:	
  1982                           ; 2 bytes @ 0x2
  1983                           
  1984     0072                     TMR1_SetInterruptHandler@InterruptHandler:	
  1985                           ; 4 bytes @ 0x2
  1986                           
  1987     0072                     PWM1_DutyCycleSet@dutyCycleCount:	
  1988                           ; 2 bytes @ 0x2
  1989                           
  1990     0072                     PWM3_DutyCycleSet@dutyCycleCount:	
  1991                           ; 2 bytes @ 0x2
  1992                           
  1993     0072                     PWM2_DutyCycleSet@dutyCycleCount:	
  1994                           ; 2 bytes @ 0x2
  1995                           
  1996     0072                     initBlink@numOfBlinks:	
  1997                           ; 2 bytes @ 0x2
  1998                           
  1999     0072                     blinkHandler@numOfBlinks:	
  2000                           ; 2 bytes @ 0x2
  2001                           
  2002     0072                     setColors@r:	
  2003                           ; 2 bytes @ 0x2
  2004                           
  2005     0072                     ___llmod@divisor:	
  2006                           ; 2 bytes @ 0x2
  2007                           
  2008                           
  2009                           ; 4 bytes @ 0x2
  2010     0072                     	ds	2
  2011     0074                     ??_TMR1_Initialize:
  2012     0074                     ??_TMR1_SetInterruptHandler:	
  2013                           ; 1 bytes @ 0x4
  2014                           
  2015     0074                     ??_appInit:	
  2016                           ; 1 bytes @ 0x4
  2017                           
  2018     0074                     ??_refreshColor:	
  2019                           ; 1 bytes @ 0x4
  2020                           
  2021     0074                     ??_initBlink:	
  2022                           ; 1 bytes @ 0x4
  2023                           
  2024     0074                     ??_blinkHandler:	
  2025                           ; 1 bytes @ 0x4
  2026                           
  2027     0074                     ??_SYSTEM_Initialize:	
  2028                           ; 1 bytes @ 0x4
  2029                           
  2030     0074                     ??_PWM1_DutyCycleSet:	
  2031                           ; 1 bytes @ 0x4
  2032                           
  2033     0074                     ??_PWM3_DutyCycleSet:	
  2034                           ; 1 bytes @ 0x4
  2035                           
  2036     0074                     ??_PWM2_DutyCycleSet:	
  2037                           ; 1 bytes @ 0x4
  2038                           
  2039     0074                     setColors@g:	
  2040                           ; 1 bytes @ 0x4
  2041                           
  2042                           
  2043                           ; 2 bytes @ 0x4
  2044     0074                     	ds	2
  2045     0076                     setColors@b:
  2046     0076                     ___llmod@dividend:	
  2047                           ; 2 bytes @ 0x6
  2048                           
  2049                           
  2050                           ; 4 bytes @ 0x6
  2051     0076                     	ds	2
  2052     0078                     ??_setColors:
  2053                           
  2054                           ; 1 bytes @ 0x8
  2055     0078                     	ds	2
  2056     007A                     ??_main:
  2057                           
  2058                           	psect	cstackBANK0
  2059     0032                     __pcstackBANK0:	
  2060                           ; 1 bytes @ 0xA
  2061                           
  2062     0032                     ??___llmod:
  2063                           
  2064                           ; 1 bytes @ 0x0
  2065     0032                     	ds	1
  2066     0033                     ___llmod@counter:
  2067                           
  2068                           ; 1 bytes @ 0x1
  2069     0033                     	ds	1
  2070     0034                     ??_appHandler:
  2071                           
  2072                           ; 1 bytes @ 0x2
  2073     0034                     	ds	2
  2074                           
  2075                           	psect	maintext
  2076     0262                     __pmaintext:	
  2077 ;;
  2078 ;;Main: autosize = 0, tempsize = 0, incstack = 0, save=0
  2079 ;;
  2080 ;; *************** function _main *****************
  2081 ;; Defined at:
  2082 ;;		line 50 in file "main.c"
  2083 ;; Parameters:    Size  Location     Type
  2084 ;;		None
  2085 ;; Auto vars:     Size  Location     Type
  2086 ;;		None
  2087 ;; Return value:  Size  Location     Type
  2088 ;;                  1    wreg      void 
  2089 ;; Registers used:
  2090 ;;		wreg, fsr0l, fsr0h, status,2, status,0, pclath, cstack
  2091 ;; Tracked objects:
  2092 ;;		On entry : B1F/0
  2093 ;;		On exit  : 0/0
  2094 ;;		Unchanged: 0/0
  2095 ;; Data sizes:     COMMON   BANK0   BANK1
  2096 ;;      Params:         0       0       0
  2097 ;;      Locals:         0       0       0
  2098 ;;      Temps:          0       0       0
  2099 ;;      Totals:         0       0       0
  2100 ;;Total ram usage:        0 bytes
  2101 ;; Hardware stack levels required when called: 7
  2102 ;; This function calls:
  2103 ;;		_SYSTEM_Initialize
  2104 ;;		_TMR2_StartTimer
  2105 ;;		_appHandler
  2106 ;;		_appInit
  2107 ;; This function is called by:
  2108 ;;		Startup code after reset
  2109 ;; This function uses a non-reentrant model
  2110 ;;
  2111                           
  2112     0262                     _main:	
  2113                           ;psect for function _main
  2114                           
  2115     0262                     l1922:	
  2116                           ;incstack = 0
  2117                           ; Regs used in _main: [wreg-fsr0h+status,2+status,0+pclath+cstack]
  2118                           
  2119                           
  2120                           ;main.c: 53:     SYSTEM_Initialize();
  2121     0262  3181  21D9  3182   	fcall	_SYSTEM_Initialize
  2122     0265                     l1924:
  2123                           
  2124                           ;main.c: 54:     TMR2_StartTimer();
  2125     0265  3182  22F8  3182   	fcall	_TMR2_StartTimer
  2126     0268                     l1926:
  2127                           
  2128                           ;main.c: 55:     appInit();
  2129     0268  3182  22A8  3182   	fcall	_appInit
  2130     026B                     l1928:
  2131                           
  2132                           ;main.c: 61:     (INTCONbits.GIE = 1);
  2133     026B  178B               	bsf	11,7	;volatile
  2134     026C                     l1930:
  2135                           
  2136                           ;main.c: 64:     (INTCONbits.PEIE = 1);
  2137     026C  170B               	bsf	11,6	;volatile
  2138     026D                     l1932:
  2139                           
  2140                           ;main.c: 73:     {;main.c: 74:         appHandler();
  2141     026D  3180  2027  3182   	fcall	_appHandler
  2142     0270  2A6D               	goto	l1932
  2143     0271  2819               	ljmp	start
  2144     0272                     __end_of_main:
  2145                           
  2146                           	psect	text1
  2147     02A8                     __ptext1:	
  2148 ;; *************** function _appInit *****************
  2149 ;; Defined at:
  2150 ;;		line 53 in file "app.c"
  2151 ;; Parameters:    Size  Location     Type
  2152 ;;		None
  2153 ;; Auto vars:     Size  Location     Type
  2154 ;;		None
  2155 ;; Return value:  Size  Location     Type
  2156 ;;                  1    wreg      void 
  2157 ;; Registers used:
  2158 ;;		wreg, status,2, status,0, pclath, cstack
  2159 ;; Tracked objects:
  2160 ;;		On entry : 0/0
  2161 ;;		On exit  : 0/0
  2162 ;;		Unchanged: 0/0
  2163 ;; Data sizes:     COMMON   BANK0   BANK1
  2164 ;;      Params:         0       0       0
  2165 ;;      Locals:         0       0       0
  2166 ;;      Temps:          0       0       0
  2167 ;;      Totals:         0       0       0
  2168 ;;Total ram usage:        0 bytes
  2169 ;; Hardware stack levels used: 1
  2170 ;; Hardware stack levels required when called: 5
  2171 ;; This function calls:
  2172 ;;		_TMR1_SetInterruptHandler
  2173 ;; This function is called by:
  2174 ;;		_main
  2175 ;; This function uses a non-reentrant model
  2176 ;;
  2177                           
  2178     02A8                     _appInit:	
  2179                           ;psect for function _appInit
  2180                           
  2181     02A8                     l1650:	
  2182                           ;incstack = 0
  2183                           ; Regs used in _appInit: [wreg+status,2+status,0+pclath+cstack]
  2184                           
  2185                           
  2186                           ;app.c: 54:     TMR1_SetInterruptHandler(msTick);
  2187     02A8  3080               	movlw	low _msTick
  2188     02A9  00F2               	movwf	TMR1_SetInterruptHandler@InterruptHandler
  2189     02AA  3002               	movlw	high _msTick
  2190     02AB  00F3               	movwf	TMR1_SetInterruptHandler@InterruptHandler+1
  2191     02AC  3182  22D7  3182   	fcall	_TMR1_SetInterruptHandler
  2192     02AF                     l478:
  2193     02AF  0008               	return
  2194     02B0                     __end_of_appInit:
  2195                           
  2196                           	psect	text2
  2197     0027                     __ptext2:	
  2198 ;; *************** function _appHandler *****************
  2199 ;; Defined at:
  2200 ;;		line 57 in file "app.c"
  2201 ;; Parameters:    Size  Location     Type
  2202 ;;		None
  2203 ;; Auto vars:     Size  Location     Type
  2204 ;;		None
  2205 ;; Return value:  Size  Location     Type
  2206 ;;                  1    wreg      void 
  2207 ;; Registers used:
  2208 ;;		wreg, fsr0l, fsr0h, status,2, status,0, pclath, cstack
  2209 ;; Tracked objects:
  2210 ;;		On entry : 0/0
  2211 ;;		On exit  : 0/0
  2212 ;;		Unchanged: 0/0
  2213 ;; Data sizes:     COMMON   BANK0   BANK1
  2214 ;;      Params:         0       0       0
  2215 ;;      Locals:         0       0       0
  2216 ;;      Temps:          0       2       0
  2217 ;;      Totals:         0       2       0
  2218 ;;Total ram usage:        2 bytes
  2219 ;; Hardware stack levels used: 1
  2220 ;; Hardware stack levels required when called: 6
  2221 ;; This function calls:
  2222 ;;		___llmod
  2223 ;;		_blinkHandler
  2224 ;;		_initBlink
  2225 ;;		_refreshColor
  2226 ;;		_setColors
  2227 ;; This function is called by:
  2228 ;;		_main
  2229 ;; This function uses a non-reentrant model
  2230 ;;
  2231                           
  2232     0027                     _appHandler:	
  2233                           ;psect for function _appHandler
  2234                           
  2235     0027                     l1828:	
  2236                           ;incstack = 0
  2237                           ; Regs used in _appHandler: [wreg-fsr0h+status,2+status,0+pclath+cstack]
  2238                           
  2239                           
  2240                           ;app.c: 59:     static uint8_t requestedNumberOfBlinks = 0;;app.c: 60:     static uint8_
      +                          t debounceBuffer = 0x00;;app.c: 62:     if(btnTicks >= 5){
  2241     0027  3005               	movlw	5
  2242     0028  0020               	movlb	0	; select bank0
  2243     0029  022C               	subwf	_btnTicks,w
  2244     002A  1C03               	skipc
  2245     002B  282D               	goto	u481
  2246     002C  282E               	goto	u480
  2247     002D                     u481:
  2248     002D  2929               	goto	l1912
  2249     002E                     u480:
  2250     002E                     l1830:
  2251                           
  2252                           ;app.c: 63:         btnTicks = 0;
  2253     002E  01AC               	clrf	_btnTicks
  2254     002F                     l1832:
  2255                           
  2256                           ;app.c: 64:         debounceBuffer = (debounceBuffer << 1 ) | !PORTAbits.RA0 | 0xC0;
  2257     002F  1003               	clrc
  2258     0030  1C0C               	btfss	12,0	;volatile
  2259     0031  1403               	setc
  2260     0032  0D7A               	rlf	appHandler@debounceBuffer,w
  2261     0033  38C0               	iorlw	192
  2262     0034  00FA               	movwf	appHandler@debounceBuffer
  2263     0035  2929               	goto	l1912
  2264     0036                     l1834:
  2265                           
  2266                           ;app.c: 69:             currentState = WAIT_FOR_BUTTON;
  2267     0036  3003               	movlw	3
  2268     0037  00FB               	movwf	_currentState
  2269     0038                     l1836:
  2270                           
  2271                           ;app.c: 70:             setColors(60000,60000,60000);
  2272     0038  3060               	movlw	96
  2273     0039  00F2               	movwf	setColors@r
  2274     003A  30EA               	movlw	234
  2275     003B  00F3               	movwf	setColors@r+1
  2276     003C  3060               	movlw	96
  2277     003D  00F4               	movwf	setColors@g
  2278     003E  30EA               	movlw	234
  2279     003F  00F5               	movwf	setColors@g+1
  2280     0040  3060               	movlw	96
  2281     0041  00F6               	movwf	setColors@b
  2282     0042  30EA               	movlw	234
  2283     0043  00F7               	movwf	setColors@b+1
  2284     0044  3182  2272  3180   	fcall	_setColors
  2285     0047                     l1838:
  2286                           
  2287                           ;app.c: 71:             refreshColor();
  2288     0047  3181  2194  3180   	fcall	_refreshColor
  2289                           
  2290                           ;app.c: 72:             timeInState = 0;
  2291     004A  3000               	movlw	0
  2292     004B  0020               	movlb	0	; select bank0
  2293     004C  00A9               	movwf	_timeInState+3
  2294     004D  3000               	movlw	0
  2295     004E  00A8               	movwf	_timeInState+2
  2296     004F  3000               	movlw	0
  2297     0050  00A7               	movwf	_timeInState+1
  2298     0051  3000               	movlw	0
  2299     0052  00A6               	movwf	_timeInState
  2300                           
  2301                           ;app.c: 73:             break;
  2302     0053  2948               	goto	l505
  2303     0054                     l1840:
  2304                           
  2305                           ;app.c: 75:             timeInState = 0;
  2306     0054  3000               	movlw	0
  2307     0055  00A9               	movwf	_timeInState+3
  2308     0056  3000               	movlw	0
  2309     0057  00A8               	movwf	_timeInState+2
  2310     0058  3000               	movlw	0
  2311     0059  00A7               	movwf	_timeInState+1
  2312     005A  3000               	movlw	0
  2313     005B  00A6               	movwf	_timeInState
  2314     005C                     l1842:
  2315                           
  2316                           ;app.c: 76:             if(debounceBuffer == 0xFF){
  2317     005C  0A7A               	incf	appHandler@debounceBuffer,w
  2318     005D  1D03               	btfss	3,2
  2319     005E  2860               	goto	u491
  2320     005F  2861               	goto	u490
  2321     0060                     u491:
  2322     0060  2948               	goto	l505
  2323     0061                     u490:
  2324     0061                     l1844:
  2325                           
  2326                           ;app.c: 77:                 currentState = READY_TO_ENTER_BUTTON;
  2327     0061  3002               	movlw	2
  2328     0062  00FB               	movwf	_currentState
  2329                           
  2330                           ;app.c: 78:                 timeInState = 0;
  2331     0063  3000               	movlw	0
  2332     0064  00A9               	movwf	_timeInState+3
  2333     0065  3000               	movlw	0
  2334     0066  00A8               	movwf	_timeInState+2
  2335     0067  3000               	movlw	0
  2336     0068  00A7               	movwf	_timeInState+1
  2337     0069  3000               	movlw	0
  2338     006A  00A6               	movwf	_timeInState
  2339     006B  2948               	goto	l505
  2340     006C                     l1846:
  2341                           
  2342                           ;app.c: 82:             if(debounceBuffer == 0xC0){
  2343     006C  30C0               	movlw	192
  2344     006D  067A               	xorwf	appHandler@debounceBuffer,w
  2345     006E  1D03               	btfss	3,2
  2346     006F  2871               	goto	u501
  2347     0070  2872               	goto	u500
  2348     0071                     u501:
  2349     0071  2948               	goto	l505
  2350     0072                     u500:
  2351     0072  2836               	goto	l1834
  2352     0073                     l1854:
  2353                           
  2354                           ;app.c: 90:             if(timeInState >= (60000)){
  2355     0073  0829               	movf	_timeInState+3,w
  2356     0074  1D03               	btfss	3,2
  2357     0075  2881               	goto	u510
  2358     0076  0828               	movf	_timeInState+2,w
  2359     0077  1D03               	btfss	3,2
  2360     0078  2881               	goto	u510
  2361     0079  3060               	movlw	96
  2362     007A  0226               	subwf	_timeInState,w
  2363     007B  30EA               	movlw	234
  2364     007C  3B27               	subwfb	_timeInState+1,w
  2365     007D  1C03               	btfss	3,0
  2366     007E  2880               	goto	u511
  2367     007F  2881               	goto	u510
  2368     0080                     u511:
  2369     0080  289E               	goto	l1862
  2370     0081                     u510:
  2371     0081                     l1856:
  2372                           
  2373                           ;app.c: 91:                 setColors(2000,2000,2000);
  2374     0081  30D0               	movlw	208
  2375     0082  00F2               	movwf	setColors@r
  2376     0083  3007               	movlw	7
  2377     0084  00F3               	movwf	setColors@r+1
  2378     0085  30D0               	movlw	208
  2379     0086  00F4               	movwf	setColors@g
  2380     0087  3007               	movlw	7
  2381     0088  00F5               	movwf	setColors@g+1
  2382     0089  30D0               	movlw	208
  2383     008A  00F6               	movwf	setColors@b
  2384     008B  3007               	movlw	7
  2385     008C  00F7               	movwf	setColors@b+1
  2386     008D  3182  2272  3180   	fcall	_setColors
  2387                           
  2388                           ;app.c: 92:                 refreshColor();
  2389     0090  3181  2194  3180   	fcall	_refreshColor
  2390     0093                     l1858:
  2391                           
  2392                           ;app.c: 93:                 currentState = SLEEP;
  2393     0093  01FB               	clrf	_currentState
  2394     0094  0AFB               	incf	_currentState,f
  2395     0095                     l1860:
  2396                           
  2397                           ;app.c: 94:                 timeInState = 0;
  2398     0095  3000               	movlw	0
  2399     0096  0020               	movlb	0	; select bank0
  2400     0097  00A9               	movwf	_timeInState+3
  2401     0098  3000               	movlw	0
  2402     0099  00A8               	movwf	_timeInState+2
  2403     009A  3000               	movlw	0
  2404     009B  00A7               	movwf	_timeInState+1
  2405     009C  3000               	movlw	0
  2406     009D  00A6               	movwf	_timeInState
  2407     009E                     l1862:
  2408                           
  2409                           ;app.c: 96:             if(debounceBuffer == 0xFF){
  2410     009E  0A7A               	incf	appHandler@debounceBuffer,w
  2411     009F  1D03               	btfss	3,2
  2412     00A0  28A2               	goto	u521
  2413     00A1  28A3               	goto	u520
  2414     00A2                     u521:
  2415     00A2  2948               	goto	l505
  2416     00A3                     u520:
  2417     00A3                     l1864:
  2418                           
  2419                           ;app.c: 97:                 requestedNumberOfBlinks = (timeInState % (5)) + 1;
  2420     00A3  3000               	movlw	0
  2421     00A4  00F5               	movwf	___llmod@divisor+3
  2422     00A5  3000               	movlw	0
  2423     00A6  00F4               	movwf	___llmod@divisor+2
  2424     00A7  3000               	movlw	0
  2425     00A8  00F3               	movwf	___llmod@divisor+1
  2426     00A9  3005               	movlw	5
  2427     00AA  00F2               	movwf	___llmod@divisor
  2428     00AB  0020               	movlb	0	; select bank0
  2429     00AC  0829               	movf	_timeInState+3,w
  2430     00AD  00F9               	movwf	___llmod@dividend+3
  2431     00AE  0828               	movf	_timeInState+2,w
  2432     00AF  00F8               	movwf	___llmod@dividend+2
  2433     00B0  0827               	movf	_timeInState+1,w
  2434     00B1  00F7               	movwf	___llmod@dividend+1
  2435     00B2  0826               	movf	_timeInState,w
  2436     00B3  00F6               	movwf	___llmod@dividend
  2437     00B4  3181  2149  3180   	fcall	___llmod
  2438     00B7  0872               	movf	?___llmod,w
  2439     00B8  3E01               	addlw	1
  2440     00B9  0020               	movlb	0	; select bank0
  2441     00BA  00AA               	movwf	appHandler@requestedNumberOfBlinks
  2442     00BB                     l1866:
  2443                           
  2444                           ;app.c: 98:                 isCaught = timeInState & 0x01;
  2445     00BB  0826               	movf	_timeInState,w
  2446     00BC  3901               	andlw	1
  2447     00BD  00AB               	movwf	_isCaught
  2448     00BE                     l1868:
  2449                           
  2450                           ;app.c: 99:                 initBlink(requestedNumberOfBlinks);
  2451     00BE  082A               	movf	appHandler@requestedNumberOfBlinks,w
  2452     00BF  00B4               	movwf	??_appHandler
  2453     00C0  01B5               	clrf	??_appHandler+1
  2454     00C1  0834               	movf	??_appHandler,w
  2455     00C2  00F2               	movwf	initBlink@numOfBlinks
  2456     00C3  0835               	movf	??_appHandler+1,w
  2457     00C4  00F3               	movwf	initBlink@numOfBlinks+1
  2458     00C5  3182  22FB  3180   	fcall	_initBlink
  2459     00C8                     l1870:
  2460                           
  2461                           ;app.c: 100:                 currentState = BLINKING;
  2462     00C8  3004               	movlw	4
  2463     00C9  00FB               	movwf	_currentState
  2464     00CA                     l1872:
  2465                           
  2466                           ;app.c: 101:                 timeInState = 0;
  2467     00CA  3000               	movlw	0
  2468     00CB  0020               	movlb	0	; select bank0
  2469     00CC  00A9               	movwf	_timeInState+3
  2470     00CD  3000               	movlw	0
  2471     00CE  00A8               	movwf	_timeInState+2
  2472     00CF  3000               	movlw	0
  2473     00D0  00A7               	movwf	_timeInState+1
  2474     00D1  3000               	movlw	0
  2475     00D2  00A6               	movwf	_timeInState
  2476     00D3  2948               	goto	l505
  2477     00D4                     l1874:
  2478                           
  2479                           ;app.c: 105:             if(blinkHandler(3)){
  2480     00D4  3003               	movlw	3
  2481     00D5  00F2               	movwf	blinkHandler@numOfBlinks
  2482     00D6  3000               	movlw	0
  2483     00D7  00F3               	movwf	blinkHandler@numOfBlinks+1
  2484     00D8  3182  22DD  3180   	fcall	_blinkHandler
  2485     00DB  0872               	movf	?_blinkHandler,w
  2486     00DC  0473               	iorwf	?_blinkHandler+1,w
  2487     00DD  1903               	btfsc	3,2
  2488     00DE  28E0               	goto	u531
  2489     00DF  28E1               	goto	u530
  2490     00E0                     u531:
  2491     00E0  2948               	goto	l505
  2492     00E1                     u530:
  2493     00E1                     l1876:
  2494                           
  2495                           ;app.c: 106:                 if(isCaught == 1){
  2496     00E1  0020               	movlb	0	; select bank0
  2497     00E2  032B               	decf	_isCaught,w
  2498     00E3  1D03               	btfss	3,2
  2499     00E4  28E6               	goto	u541
  2500     00E5  28E7               	goto	u540
  2501     00E6                     u541:
  2502     00E6  28FA               	goto	l1884
  2503     00E7                     u540:
  2504     00E7                     l1878:
  2505                           
  2506                           ;app.c: 107:                     setColors(65535,0,0);
  2507     00E7  30FF               	movlw	255
  2508     00E8  00F2               	movwf	setColors@r
  2509     00E9  30FF               	movlw	255
  2510     00EA  00F3               	movwf	setColors@r+1
  2511     00EB  3000               	movlw	0
  2512     00EC  00F4               	movwf	setColors@g
  2513     00ED  00F5               	movwf	setColors@g+1
  2514     00EE  3000               	movlw	0
  2515     00EF  00F6               	movwf	setColors@b
  2516     00F0  00F7               	movwf	setColors@b+1
  2517     00F1  3182  2272  3180   	fcall	_setColors
  2518                           
  2519                           ;app.c: 108:                     refreshColor();
  2520     00F4  3181  2194  3180   	fcall	_refreshColor
  2521     00F7                     l1880:
  2522                           
  2523                           ;app.c: 109:                     currentState = CAUGHT;
  2524     00F7  3005               	movlw	5
  2525     00F8  00FB               	movwf	_currentState
  2526     00F9  28CA               	goto	l1872
  2527     00FA                     l1884:
  2528                           
  2529                           ;app.c: 113:                     setColors(0,65535,0);
  2530     00FA  3000               	movlw	0
  2531     00FB  00F2               	movwf	setColors@r
  2532     00FC  00F3               	movwf	setColors@r+1
  2533     00FD  30FF               	movlw	255
  2534     00FE  00F4               	movwf	setColors@g
  2535     00FF  30FF               	movlw	255
  2536     0100  00F5               	movwf	setColors@g+1
  2537     0101  3000               	movlw	0
  2538     0102  00F6               	movwf	setColors@b
  2539     0103  00F7               	movwf	setColors@b+1
  2540     0104  3182  2272  3180   	fcall	_setColors
  2541                           
  2542                           ;app.c: 114:                     refreshColor();
  2543     0107  3181  2194  3180   	fcall	_refreshColor
  2544     010A                     l1886:
  2545                           
  2546                           ;app.c: 115:                     currentState = NOT_CAUGHT;
  2547     010A  3006               	movlw	6
  2548     010B  00FB               	movwf	_currentState
  2549     010C  28CA               	goto	l1872
  2550     010D                     l1890:
  2551                           
  2552                           ;app.c: 121:             if(timeInState == (3500)){
  2553     010D  30AC               	movlw	172
  2554     010E  0626               	xorwf	_timeInState,w
  2555     010F  300D               	movlw	13
  2556     0110  1903               	skipnz
  2557     0111  0627               	xorwf	_timeInState+1,w
  2558     0112  0428               	iorwf	_timeInState+2,w
  2559     0113  0429               	iorwf	_timeInState+3,w
  2560     0114  1D03               	btfss	3,2
  2561     0115  2917               	goto	u551
  2562     0116  2918               	goto	u550
  2563     0117                     u551:
  2564     0117  2948               	goto	l505
  2565     0118                     u550:
  2566     0118                     l1892:
  2567                           
  2568                           ;app.c: 122:                 currentState = READY_TO_ENTER_BUTTON;
  2569     0118  3002               	movlw	2
  2570     0119  00FB               	movwf	_currentState
  2571     011A  2838               	goto	l1836
  2572     011B                     l1898:
  2573                           
  2574                           ;app.c: 129:             if(timeInState == (3500)){
  2575     011B  30AC               	movlw	172
  2576     011C  0626               	xorwf	_timeInState,w
  2577     011D  300D               	movlw	13
  2578     011E  1903               	skipnz
  2579     011F  0627               	xorwf	_timeInState+1,w
  2580     0120  0428               	iorwf	_timeInState+2,w
  2581     0121  0429               	iorwf	_timeInState+3,w
  2582     0122  1D03               	btfss	3,2
  2583     0123  2925               	goto	u561
  2584     0124  2926               	goto	u560
  2585     0125                     u561:
  2586     0125  2948               	goto	l505
  2587     0126                     u560:
  2588     0126  2918               	goto	l1892
  2589     0127                     l1906:
  2590                           
  2591                           ;app.c: 137:             currentState = INIT;
  2592     0127  01FB               	clrf	_currentState
  2593     0128  28CA               	goto	l1872
  2594     0129                     l1912:
  2595     0129  087B               	movf	_currentState,w
  2596     012A  00B4               	movwf	??_appHandler
  2597     012B  01B5               	clrf	??_appHandler+1
  2598                           
  2599                           ; Switch on 2 bytes has been partitioned into a top level switch of size 1, and 1 sub-sw
      +                          itches
  2600                           ; Switch size 1, requested type "simple"
  2601                           ; Number of cases is 1, Range of values is 0 to 0
  2602                           ; switch strategies available:
  2603                           ; Name         Instructions Cycles
  2604                           ; simple_byte            4     3 (average)
  2605                           ; direct_byte            8     6 (fixed)
  2606                           ; jumptable            260     6 (fixed)
  2607                           ;	Chosen strategy is simple_byte
  2608     012C  0835               	movf	??_appHandler+1,w
  2609     012D  3A00               	xorlw	0	; case 0
  2610     012E  1903               	skipnz
  2611     012F  2931               	goto	l1974
  2612     0130  2927               	goto	l1906
  2613     0131                     l1974:
  2614                           
  2615                           ; Switch size 1, requested type "simple"
  2616                           ; Number of cases is 7, Range of values is 0 to 6
  2617                           ; switch strategies available:
  2618                           ; Name         Instructions Cycles
  2619                           ; direct_byte           20     6 (fixed)
  2620                           ; simple_byte           22    12 (average)
  2621                           ; jumptable            260     6 (fixed)
  2622                           ;	Chosen strategy is simple_byte
  2623     0131  0834               	movf	??_appHandler,w
  2624     0132  3A00               	xorlw	0	; case 0
  2625     0133  1903               	skipnz
  2626     0134  2836               	goto	l1834
  2627     0135  3A01               	xorlw	1	; case 1
  2628     0136  1903               	skipnz
  2629     0137  2854               	goto	l1840
  2630     0138  3A03               	xorlw	3	; case 2
  2631     0139  1903               	skipnz
  2632     013A  286C               	goto	l1846
  2633     013B  3A01               	xorlw	1	; case 3
  2634     013C  1903               	skipnz
  2635     013D  2873               	goto	l1854
  2636     013E  3A07               	xorlw	7	; case 4
  2637     013F  1903               	skipnz
  2638     0140  28D4               	goto	l1874
  2639     0141  3A01               	xorlw	1	; case 5
  2640     0142  1903               	skipnz
  2641     0143  290D               	goto	l1890
  2642     0144  3A03               	xorlw	3	; case 6
  2643     0145  1903               	skipnz
  2644     0146  291B               	goto	l1898
  2645     0147  2927               	goto	l1906
  2646     0148                     l505:
  2647     0148  0008               	return
  2648     0149                     __end_of_appHandler:
  2649                           
  2650                           	psect	text3
  2651     0272                     __ptext3:	
  2652 ;; *************** function _setColors *****************
  2653 ;; Defined at:
  2654 ;;		line 192 in file "app.c"
  2655 ;; Parameters:    Size  Location     Type
  2656 ;;  r               2    2[COMMON] unsigned short 
  2657 ;;  g               2    4[COMMON] unsigned short 
  2658 ;;  b               2    6[COMMON] unsigned short 
  2659 ;; Auto vars:     Size  Location     Type
  2660 ;;		None
  2661 ;; Return value:  Size  Location     Type
  2662 ;;                  1    wreg      void 
  2663 ;; Registers used:
  2664 ;;		wreg
  2665 ;; Tracked objects:
  2666 ;;		On entry : 0/0
  2667 ;;		On exit  : 0/0
  2668 ;;		Unchanged: 0/0
  2669 ;; Data sizes:     COMMON   BANK0   BANK1
  2670 ;;      Params:         6       0       0
  2671 ;;      Locals:         0       0       0
  2672 ;;      Temps:          0       0       0
  2673 ;;      Totals:         6       0       0
  2674 ;;Total ram usage:        6 bytes
  2675 ;; Hardware stack levels used: 1
  2676 ;; Hardware stack levels required when called: 4
  2677 ;; This function calls:
  2678 ;;		Nothing
  2679 ;; This function is called by:
  2680 ;;		_appHandler
  2681 ;; This function uses a non-reentrant model
  2682 ;;
  2683                           
  2684     0272                     _setColors:	
  2685                           ;psect for function _setColors
  2686                           
  2687     0272                     l1604:	
  2688                           ;incstack = 0
  2689                           ; Regs used in _setColors: [wreg]
  2690                           
  2691                           
  2692                           ;app.c: 193:     led.red = r;
  2693     0272  0873               	movf	setColors@r+1,w
  2694     0273  0020               	movlb	0	; select bank0
  2695     0274  00A1               	movwf	_led+1
  2696     0275  0872               	movf	setColors@r,w
  2697     0276  00A0               	movwf	_led
  2698                           
  2699                           ;app.c: 194:     led.green = g;
  2700     0277  0875               	movf	setColors@g+1,w
  2701     0278  00A3               	movwf	_led+3
  2702     0279  0874               	movf	setColors@g,w
  2703     027A  00A2               	movwf	_led+2
  2704                           
  2705                           ;app.c: 195:     led.blue = b;
  2706     027B  0877               	movf	setColors@b+1,w
  2707     027C  00A5               	movwf	_led+5
  2708     027D  0876               	movf	setColors@b,w
  2709     027E  00A4               	movwf	_led+4
  2710     027F                     l520:
  2711     027F  0008               	return
  2712     0280                     __end_of_setColors:
  2713                           
  2714                           	psect	text4
  2715     0194                     __ptext4:	
  2716 ;; *************** function _refreshColor *****************
  2717 ;; Defined at:
  2718 ;;		line 178 in file "app.c"
  2719 ;; Parameters:    Size  Location     Type
  2720 ;;		None
  2721 ;; Auto vars:     Size  Location     Type
  2722 ;;		None
  2723 ;; Return value:  Size  Location     Type
  2724 ;;                  1    wreg      void 
  2725 ;; Registers used:
  2726 ;;		wreg, status,2, status,0, pclath, cstack
  2727 ;; Tracked objects:
  2728 ;;		On entry : 0/0
  2729 ;;		On exit  : 0/0
  2730 ;;		Unchanged: 0/0
  2731 ;; Data sizes:     COMMON   BANK0   BANK1
  2732 ;;      Params:         0       0       0
  2733 ;;      Locals:         0       0       0
  2734 ;;      Temps:          0       0       0
  2735 ;;      Totals:         0       0       0
  2736 ;;Total ram usage:        0 bytes
  2737 ;; Hardware stack levels used: 1
  2738 ;; Hardware stack levels required when called: 5
  2739 ;; This function calls:
  2740 ;;		_PWM1_DutyCycleSet
  2741 ;;		_PWM1_Start
  2742 ;;		_PWM1_Stop
  2743 ;;		_PWM2_DutyCycleSet
  2744 ;;		_PWM2_Start
  2745 ;;		_PWM2_Stop
  2746 ;;		_PWM3_DutyCycleSet
  2747 ;;		_PWM3_Start
  2748 ;;		_PWM3_Stop
  2749 ;; This function is called by:
  2750 ;;		_appHandler
  2751 ;; This function uses a non-reentrant model
  2752 ;;
  2753                           
  2754     0194                     _refreshColor:	
  2755                           ;psect for function _refreshColor
  2756                           
  2757     0194                     l1606:	
  2758                           ;incstack = 0
  2759                           ; Regs used in _refreshColor: [wreg+status,2+status,0+pclath+cstack]
  2760                           
  2761                           
  2762                           ;app.c: 179:     PWM1_Stop();
  2763     0194  3182  22F2  3181   	fcall	_PWM1_Stop
  2764     0197                     l1608:
  2765                           
  2766                           ;app.c: 180:     PWM1_DutyCycleSet(led.red);
  2767     0197  0020               	movlb	0	; select bank0
  2768     0198  0821               	movf	_led+1,w
  2769     0199  00F3               	movwf	PWM1_DutyCycleSet@dutyCycleCount+1
  2770     019A  0820               	movf	_led,w
  2771     019B  00F2               	movwf	PWM1_DutyCycleSet@dutyCycleCount
  2772     019C  3182  22D1  3181   	fcall	_PWM1_DutyCycleSet
  2773     019F                     l1610:
  2774                           
  2775                           ;app.c: 181:     PWM1_Start();
  2776     019F  3182  22F5  3181   	fcall	_PWM1_Start
  2777     01A2                     l1612:
  2778                           
  2779                           ;app.c: 183:     PWM2_Stop();
  2780     01A2  3182  22EC  3181   	fcall	_PWM2_Stop
  2781     01A5                     l1614:
  2782                           
  2783                           ;app.c: 184:     PWM2_DutyCycleSet(led.green);
  2784     01A5  0020               	movlb	0	; select bank0
  2785     01A6  0823               	movf	_led+3,w
  2786     01A7  00F3               	movwf	PWM2_DutyCycleSet@dutyCycleCount+1
  2787     01A8  0822               	movf	_led+2,w
  2788     01A9  00F2               	movwf	PWM2_DutyCycleSet@dutyCycleCount
  2789     01AA  3182  22CB  3181   	fcall	_PWM2_DutyCycleSet
  2790                           
  2791                           ;app.c: 185:     PWM2_Start();
  2792     01AD  3182  22EF  3181   	fcall	_PWM2_Start
  2793                           
  2794                           ;app.c: 187:     PWM3_Stop();
  2795     01B0  3182  22E6  3181   	fcall	_PWM3_Stop
  2796     01B3                     l1616:
  2797                           
  2798                           ;app.c: 188:     PWM3_DutyCycleSet(led.blue);
  2799     01B3  0020               	movlb	0	; select bank0
  2800     01B4  0825               	movf	_led+5,w
  2801     01B5  00F3               	movwf	PWM3_DutyCycleSet@dutyCycleCount+1
  2802     01B6  0824               	movf	_led+4,w
  2803     01B7  00F2               	movwf	PWM3_DutyCycleSet@dutyCycleCount
  2804     01B8  3182  22C5  3181   	fcall	_PWM3_DutyCycleSet
  2805     01BB                     l1618:
  2806                           
  2807                           ;app.c: 189:     PWM3_Start();
  2808     01BB  3182  22E9  3181   	fcall	_PWM3_Start
  2809     01BE                     l517:
  2810     01BE  0008               	return
  2811     01BF                     __end_of_refreshColor:
  2812                           
  2813                           	psect	text5
  2814     02E6                     __ptext5:	
  2815 ;; *************** function _PWM3_Stop *****************
  2816 ;; Defined at:
  2817 ;;		line 118 in file "mcc_generated_files/pwm3.c"
  2818 ;; Parameters:    Size  Location     Type
  2819 ;;		None
  2820 ;; Auto vars:     Size  Location     Type
  2821 ;;		None
  2822 ;; Return value:  Size  Location     Type
  2823 ;;                  1    wreg      void 
  2824 ;; Registers used:
  2825 ;;		None
  2826 ;; Tracked objects:
  2827 ;;		On entry : 0/0
  2828 ;;		On exit  : 0/0
  2829 ;;		Unchanged: 0/0
  2830 ;; Data sizes:     COMMON   BANK0   BANK1
  2831 ;;      Params:         0       0       0
  2832 ;;      Locals:         0       0       0
  2833 ;;      Temps:          0       0       0
  2834 ;;      Totals:         0       0       0
  2835 ;;Total ram usage:        0 bytes
  2836 ;; Hardware stack levels used: 1
  2837 ;; Hardware stack levels required when called: 4
  2838 ;; This function calls:
  2839 ;;		Nothing
  2840 ;; This function is called by:
  2841 ;;		_refreshColor
  2842 ;; This function uses a non-reentrant model
  2843 ;;
  2844                           
  2845     02E6                     _PWM3_Stop:	
  2846                           ;psect for function _PWM3_Stop
  2847                           
  2848     02E6                     l1552:	
  2849                           ;incstack = 0
  2850                           ; Regs used in _PWM3_Stop: []
  2851                           
  2852                           
  2853                           ;mcc_generated_files/pwm3.c: 120:     PWM3CONbits.EN = 0;
  2854     02E6  003B               	movlb	27	; select bank27
  2855     02E7  13BB               	bcf	59,7	;volatile
  2856     02E8                     l300:
  2857     02E8  0008               	return
  2858     02E9                     __end_of_PWM3_Stop:
  2859                           
  2860                           	psect	text6
  2861     02E9                     __ptext6:	
  2862 ;; *************** function _PWM3_Start *****************
  2863 ;; Defined at:
  2864 ;;		line 113 in file "mcc_generated_files/pwm3.c"
  2865 ;; Parameters:    Size  Location     Type
  2866 ;;		None
  2867 ;; Auto vars:     Size  Location     Type
  2868 ;;		None
  2869 ;; Return value:  Size  Location     Type
  2870 ;;                  1    wreg      void 
  2871 ;; Registers used:
  2872 ;;		None
  2873 ;; Tracked objects:
  2874 ;;		On entry : 0/0
  2875 ;;		On exit  : 0/0
  2876 ;;		Unchanged: 0/0
  2877 ;; Data sizes:     COMMON   BANK0   BANK1
  2878 ;;      Params:         0       0       0
  2879 ;;      Locals:         0       0       0
  2880 ;;      Temps:          0       0       0
  2881 ;;      Totals:         0       0       0
  2882 ;;Total ram usage:        0 bytes
  2883 ;; Hardware stack levels used: 1
  2884 ;; Hardware stack levels required when called: 4
  2885 ;; This function calls:
  2886 ;;		Nothing
  2887 ;; This function is called by:
  2888 ;;		_refreshColor
  2889 ;; This function uses a non-reentrant model
  2890 ;;
  2891                           
  2892     02E9                     _PWM3_Start:	
  2893                           ;psect for function _PWM3_Start
  2894                           
  2895     02E9                     l1550:	
  2896                           ;incstack = 0
  2897                           ; Regs used in _PWM3_Start: []
  2898                           
  2899                           
  2900                           ;mcc_generated_files/pwm3.c: 115:     PWM3CONbits.EN = 1;
  2901     02E9  003B               	movlb	27	; select bank27
  2902     02EA  17BB               	bsf	59,7	;volatile
  2903     02EB                     l297:
  2904     02EB  0008               	return
  2905     02EC                     __end_of_PWM3_Start:
  2906                           
  2907                           	psect	text7
  2908     02C5                     __ptext7:	
  2909 ;; *************** function _PWM3_DutyCycleSet *****************
  2910 ;; Defined at:
  2911 ;;		line 139 in file "mcc_generated_files/pwm3.c"
  2912 ;; Parameters:    Size  Location     Type
  2913 ;;  dutyCycleCou    2    2[COMMON] unsigned short 
  2914 ;; Auto vars:     Size  Location     Type
  2915 ;;		None
  2916 ;; Return value:  Size  Location     Type
  2917 ;;                  1    wreg      void 
  2918 ;; Registers used:
  2919 ;;		wreg, status,2
  2920 ;; Tracked objects:
  2921 ;;		On entry : 0/0
  2922 ;;		On exit  : 0/0
  2923 ;;		Unchanged: 0/0
  2924 ;; Data sizes:     COMMON   BANK0   BANK1
  2925 ;;      Params:         2       0       0
  2926 ;;      Locals:         0       0       0
  2927 ;;      Temps:          0       0       0
  2928 ;;      Totals:         2       0       0
  2929 ;;Total ram usage:        2 bytes
  2930 ;; Hardware stack levels used: 1
  2931 ;; Hardware stack levels required when called: 4
  2932 ;; This function calls:
  2933 ;;		Nothing
  2934 ;; This function is called by:
  2935 ;;		_refreshColor
  2936 ;; This function uses a non-reentrant model
  2937 ;;
  2938                           
  2939     02C5                     _PWM3_DutyCycleSet:	
  2940                           ;psect for function _PWM3_DutyCycleSet
  2941                           
  2942     02C5                     l1554:	
  2943                           ;incstack = 0
  2944                           ; Regs used in _PWM3_DutyCycleSet: [wreg+status,2]
  2945                           
  2946                           
  2947                           ;mcc_generated_files/pwm3.c: 139: void PWM3_DutyCycleSet(uint16_t dutyCycleCount);mcc_ge
      +                          nerated_files/pwm3.c: 140: {;mcc_generated_files/pwm3.c: 141:     PWM3DCH = (dutyCycleCo
      +                          unt>>8);
  2948     02C5  0873               	movf	PWM3_DutyCycleSet@dutyCycleCount+1,w
  2949     02C6  003B               	movlb	27	; select bank27
  2950     02C7  00B4               	movwf	52	;volatile
  2951     02C8                     l1556:
  2952                           
  2953                           ;mcc_generated_files/pwm3.c: 142:     PWM3DCL = (dutyCycleCount);
  2954     02C8  0872               	movf	PWM3_DutyCycleSet@dutyCycleCount,w
  2955     02C9  00B3               	movwf	51	;volatile
  2956     02CA                     l312:
  2957     02CA  0008               	return
  2958     02CB                     __end_of_PWM3_DutyCycleSet:
  2959                           
  2960                           	psect	text8
  2961     02EC                     __ptext8:	
  2962 ;; *************** function _PWM2_Stop *****************
  2963 ;; Defined at:
  2964 ;;		line 118 in file "mcc_generated_files/pwm2.c"
  2965 ;; Parameters:    Size  Location     Type
  2966 ;;		None
  2967 ;; Auto vars:     Size  Location     Type
  2968 ;;		None
  2969 ;; Return value:  Size  Location     Type
  2970 ;;                  1    wreg      void 
  2971 ;; Registers used:
  2972 ;;		None
  2973 ;; Tracked objects:
  2974 ;;		On entry : 0/0
  2975 ;;		On exit  : 0/0
  2976 ;;		Unchanged: 0/0
  2977 ;; Data sizes:     COMMON   BANK0   BANK1
  2978 ;;      Params:         0       0       0
  2979 ;;      Locals:         0       0       0
  2980 ;;      Temps:          0       0       0
  2981 ;;      Totals:         0       0       0
  2982 ;;Total ram usage:        0 bytes
  2983 ;; Hardware stack levels used: 1
  2984 ;; Hardware stack levels required when called: 4
  2985 ;; This function calls:
  2986 ;;		Nothing
  2987 ;; This function is called by:
  2988 ;;		_refreshColor
  2989 ;; This function uses a non-reentrant model
  2990 ;;
  2991                           
  2992     02EC                     _PWM2_Stop:	
  2993                           ;psect for function _PWM2_Stop
  2994                           
  2995     02EC                     l1560:	
  2996                           ;incstack = 0
  2997                           ; Regs used in _PWM2_Stop: []
  2998                           
  2999                           
  3000                           ;mcc_generated_files/pwm2.c: 120:     PWM2CONbits.EN = 0;
  3001     02EC  003B               	movlb	27	; select bank27
  3002     02ED  13AB               	bcf	43,7	;volatile
  3003     02EE                     l380:
  3004     02EE  0008               	return
  3005     02EF                     __end_of_PWM2_Stop:
  3006                           
  3007                           	psect	text9
  3008     02EF                     __ptext9:	
  3009 ;; *************** function _PWM2_Start *****************
  3010 ;; Defined at:
  3011 ;;		line 113 in file "mcc_generated_files/pwm2.c"
  3012 ;; Parameters:    Size  Location     Type
  3013 ;;		None
  3014 ;; Auto vars:     Size  Location     Type
  3015 ;;		None
  3016 ;; Return value:  Size  Location     Type
  3017 ;;                  1    wreg      void 
  3018 ;; Registers used:
  3019 ;;		None
  3020 ;; Tracked objects:
  3021 ;;		On entry : 0/0
  3022 ;;		On exit  : 0/0
  3023 ;;		Unchanged: 0/0
  3024 ;; Data sizes:     COMMON   BANK0   BANK1
  3025 ;;      Params:         0       0       0
  3026 ;;      Locals:         0       0       0
  3027 ;;      Temps:          0       0       0
  3028 ;;      Totals:         0       0       0
  3029 ;;Total ram usage:        0 bytes
  3030 ;; Hardware stack levels used: 1
  3031 ;; Hardware stack levels required when called: 4
  3032 ;; This function calls:
  3033 ;;		Nothing
  3034 ;; This function is called by:
  3035 ;;		_refreshColor
  3036 ;; This function uses a non-reentrant model
  3037 ;;
  3038                           
  3039     02EF                     _PWM2_Start:	
  3040                           ;psect for function _PWM2_Start
  3041                           
  3042     02EF                     l1558:	
  3043                           ;incstack = 0
  3044                           ; Regs used in _PWM2_Start: []
  3045                           
  3046                           
  3047                           ;mcc_generated_files/pwm2.c: 115:     PWM2CONbits.EN = 1;
  3048     02EF  003B               	movlb	27	; select bank27
  3049     02F0  17AB               	bsf	43,7	;volatile
  3050     02F1                     l377:
  3051     02F1  0008               	return
  3052     02F2                     __end_of_PWM2_Start:
  3053                           
  3054                           	psect	text10
  3055     02CB                     __ptext10:	
  3056 ;; *************** function _PWM2_DutyCycleSet *****************
  3057 ;; Defined at:
  3058 ;;		line 139 in file "mcc_generated_files/pwm2.c"
  3059 ;; Parameters:    Size  Location     Type
  3060 ;;  dutyCycleCou    2    2[COMMON] unsigned short 
  3061 ;; Auto vars:     Size  Location     Type
  3062 ;;		None
  3063 ;; Return value:  Size  Location     Type
  3064 ;;                  1    wreg      void 
  3065 ;; Registers used:
  3066 ;;		wreg, status,2
  3067 ;; Tracked objects:
  3068 ;;		On entry : 0/0
  3069 ;;		On exit  : 0/0
  3070 ;;		Unchanged: 0/0
  3071 ;; Data sizes:     COMMON   BANK0   BANK1
  3072 ;;      Params:         2       0       0
  3073 ;;      Locals:         0       0       0
  3074 ;;      Temps:          0       0       0
  3075 ;;      Totals:         2       0       0
  3076 ;;Total ram usage:        2 bytes
  3077 ;; Hardware stack levels used: 1
  3078 ;; Hardware stack levels required when called: 4
  3079 ;; This function calls:
  3080 ;;		Nothing
  3081 ;; This function is called by:
  3082 ;;		_refreshColor
  3083 ;; This function uses a non-reentrant model
  3084 ;;
  3085                           
  3086     02CB                     _PWM2_DutyCycleSet:	
  3087                           ;psect for function _PWM2_DutyCycleSet
  3088                           
  3089     02CB                     l1562:	
  3090                           ;incstack = 0
  3091                           ; Regs used in _PWM2_DutyCycleSet: [wreg+status,2]
  3092                           
  3093                           
  3094                           ;mcc_generated_files/pwm2.c: 139: void PWM2_DutyCycleSet(uint16_t dutyCycleCount);mcc_ge
      +                          nerated_files/pwm2.c: 140: {;mcc_generated_files/pwm2.c: 141:     PWM2DCH = (dutyCycleCo
      +                          unt>>8);
  3095     02CB  0873               	movf	PWM2_DutyCycleSet@dutyCycleCount+1,w
  3096     02CC  003B               	movlb	27	; select bank27
  3097     02CD  00A4               	movwf	36	;volatile
  3098     02CE                     l1564:
  3099                           
  3100                           ;mcc_generated_files/pwm2.c: 142:     PWM2DCL = (dutyCycleCount);
  3101     02CE  0872               	movf	PWM2_DutyCycleSet@dutyCycleCount,w
  3102     02CF  00A3               	movwf	35	;volatile
  3103     02D0                     l392:
  3104     02D0  0008               	return
  3105     02D1                     __end_of_PWM2_DutyCycleSet:
  3106                           
  3107                           	psect	text11
  3108     02F2                     __ptext11:	
  3109 ;; *************** function _PWM1_Stop *****************
  3110 ;; Defined at:
  3111 ;;		line 118 in file "mcc_generated_files/pwm1.c"
  3112 ;; Parameters:    Size  Location     Type
  3113 ;;		None
  3114 ;; Auto vars:     Size  Location     Type
  3115 ;;		None
  3116 ;; Return value:  Size  Location     Type
  3117 ;;                  1    wreg      void 
  3118 ;; Registers used:
  3119 ;;		None
  3120 ;; Tracked objects:
  3121 ;;		On entry : 0/0
  3122 ;;		On exit  : 0/0
  3123 ;;		Unchanged: 0/0
  3124 ;; Data sizes:     COMMON   BANK0   BANK1
  3125 ;;      Params:         0       0       0
  3126 ;;      Locals:         0       0       0
  3127 ;;      Temps:          0       0       0
  3128 ;;      Totals:         0       0       0
  3129 ;;Total ram usage:        0 bytes
  3130 ;; Hardware stack levels used: 1
  3131 ;; Hardware stack levels required when called: 4
  3132 ;; This function calls:
  3133 ;;		Nothing
  3134 ;; This function is called by:
  3135 ;;		_refreshColor
  3136 ;; This function uses a non-reentrant model
  3137 ;;
  3138                           
  3139     02F2                     _PWM1_Stop:	
  3140                           ;psect for function _PWM1_Stop
  3141                           
  3142     02F2                     l1544:	
  3143                           ;incstack = 0
  3144                           ; Regs used in _PWM1_Stop: []
  3145                           
  3146                           
  3147                           ;mcc_generated_files/pwm1.c: 120:     PWM1CONbits.EN = 0;
  3148     02F2  003B               	movlb	27	; select bank27
  3149     02F3  139B               	bcf	27,7	;volatile
  3150     02F4                     l220:
  3151     02F4  0008               	return
  3152     02F5                     __end_of_PWM1_Stop:
  3153                           
  3154                           	psect	text12
  3155     02F5                     __ptext12:	
  3156 ;; *************** function _PWM1_Start *****************
  3157 ;; Defined at:
  3158 ;;		line 113 in file "mcc_generated_files/pwm1.c"
  3159 ;; Parameters:    Size  Location     Type
  3160 ;;		None
  3161 ;; Auto vars:     Size  Location     Type
  3162 ;;		None
  3163 ;; Return value:  Size  Location     Type
  3164 ;;                  1    wreg      void 
  3165 ;; Registers used:
  3166 ;;		None
  3167 ;; Tracked objects:
  3168 ;;		On entry : 0/0
  3169 ;;		On exit  : 0/0
  3170 ;;		Unchanged: 0/0
  3171 ;; Data sizes:     COMMON   BANK0   BANK1
  3172 ;;      Params:         0       0       0
  3173 ;;      Locals:         0       0       0
  3174 ;;      Temps:          0       0       0
  3175 ;;      Totals:         0       0       0
  3176 ;;Total ram usage:        0 bytes
  3177 ;; Hardware stack levels used: 1
  3178 ;; Hardware stack levels required when called: 4
  3179 ;; This function calls:
  3180 ;;		Nothing
  3181 ;; This function is called by:
  3182 ;;		_refreshColor
  3183 ;; This function uses a non-reentrant model
  3184 ;;
  3185                           
  3186     02F5                     _PWM1_Start:	
  3187                           ;psect for function _PWM1_Start
  3188                           
  3189     02F5                     l1542:	
  3190                           ;incstack = 0
  3191                           ; Regs used in _PWM1_Start: []
  3192                           
  3193                           
  3194                           ;mcc_generated_files/pwm1.c: 115:     PWM1CONbits.EN = 1;
  3195     02F5  003B               	movlb	27	; select bank27
  3196     02F6  179B               	bsf	27,7	;volatile
  3197     02F7                     l217:
  3198     02F7  0008               	return
  3199     02F8                     __end_of_PWM1_Start:
  3200                           
  3201                           	psect	text13
  3202     02D1                     __ptext13:	
  3203 ;; *************** function _PWM1_DutyCycleSet *****************
  3204 ;; Defined at:
  3205 ;;		line 139 in file "mcc_generated_files/pwm1.c"
  3206 ;; Parameters:    Size  Location     Type
  3207 ;;  dutyCycleCou    2    2[COMMON] unsigned short 
  3208 ;; Auto vars:     Size  Location     Type
  3209 ;;		None
  3210 ;; Return value:  Size  Location     Type
  3211 ;;                  1    wreg      void 
  3212 ;; Registers used:
  3213 ;;		wreg, status,2
  3214 ;; Tracked objects:
  3215 ;;		On entry : 0/0
  3216 ;;		On exit  : 0/0
  3217 ;;		Unchanged: 0/0
  3218 ;; Data sizes:     COMMON   BANK0   BANK1
  3219 ;;      Params:         2       0       0
  3220 ;;      Locals:         0       0       0
  3221 ;;      Temps:          0       0       0
  3222 ;;      Totals:         2       0       0
  3223 ;;Total ram usage:        2 bytes
  3224 ;; Hardware stack levels used: 1
  3225 ;; Hardware stack levels required when called: 4
  3226 ;; This function calls:
  3227 ;;		Nothing
  3228 ;; This function is called by:
  3229 ;;		_refreshColor
  3230 ;; This function uses a non-reentrant model
  3231 ;;
  3232                           
  3233     02D1                     _PWM1_DutyCycleSet:	
  3234                           ;psect for function _PWM1_DutyCycleSet
  3235                           
  3236     02D1                     l1546:	
  3237                           ;incstack = 0
  3238                           ; Regs used in _PWM1_DutyCycleSet: [wreg+status,2]
  3239                           
  3240                           
  3241                           ;mcc_generated_files/pwm1.c: 139: void PWM1_DutyCycleSet(uint16_t dutyCycleCount);mcc_ge
      +                          nerated_files/pwm1.c: 140: {;mcc_generated_files/pwm1.c: 141:     PWM1DCH = (dutyCycleCo
      +                          unt>>8);
  3242     02D1  0873               	movf	PWM1_DutyCycleSet@dutyCycleCount+1,w
  3243     02D2  003B               	movlb	27	; select bank27
  3244     02D3  0094               	movwf	20	;volatile
  3245     02D4                     l1548:
  3246                           
  3247                           ;mcc_generated_files/pwm1.c: 142:     PWM1DCL = (dutyCycleCount);
  3248     02D4  0872               	movf	PWM1_DutyCycleSet@dutyCycleCount,w
  3249     02D5  0093               	movwf	19	;volatile
  3250     02D6                     l232:
  3251     02D6  0008               	return
  3252     02D7                     __end_of_PWM1_DutyCycleSet:
  3253                           
  3254                           	psect	text14
  3255     02FB                     __ptext14:	
  3256 ;; *************** function _initBlink *****************
  3257 ;; Defined at:
  3258 ;;		line 148 in file "app.c"
  3259 ;; Parameters:    Size  Location     Type
  3260 ;;  numOfBlinks     2    2[COMMON] int 
  3261 ;; Auto vars:     Size  Location     Type
  3262 ;;		None
  3263 ;; Return value:  Size  Location     Type
  3264 ;;                  1    wreg      void 
  3265 ;; Registers used:
  3266 ;;		None
  3267 ;; Tracked objects:
  3268 ;;		On entry : 0/0
  3269 ;;		On exit  : 0/0
  3270 ;;		Unchanged: 0/0
  3271 ;; Data sizes:     COMMON   BANK0   BANK1
  3272 ;;      Params:         2       0       0
  3273 ;;      Locals:         0       0       0
  3274 ;;      Temps:          0       0       0
  3275 ;;      Totals:         2       0       0
  3276 ;;Total ram usage:        2 bytes
  3277 ;; Hardware stack levels used: 1
  3278 ;; Hardware stack levels required when called: 4
  3279 ;; This function calls:
  3280 ;;		Nothing
  3281 ;; This function is called by:
  3282 ;;		_appHandler
  3283 ;; This function uses a non-reentrant model
  3284 ;;
  3285                           
  3286     02FB                     _initBlink:	
  3287                           ;psect for function _initBlink
  3288                           
  3289     02FB                     l511:	
  3290                           ;incstack = 0
  3291                           ; Regs used in _initBlink: []
  3292                           
  3293     02FB  0008               	return
  3294     02FC                     __end_of_initBlink:
  3295                           
  3296                           	psect	text15
  3297     02DD                     __ptext15:	
  3298 ;; *************** function _blinkHandler *****************
  3299 ;; Defined at:
  3300 ;;		line 152 in file "app.c"
  3301 ;; Parameters:    Size  Location     Type
  3302 ;;  numOfBlinks     2    2[COMMON] int 
  3303 ;; Auto vars:     Size  Location     Type
  3304 ;;		None
  3305 ;; Return value:  Size  Location     Type
  3306 ;;                  2    2[COMMON] int 
  3307 ;; Registers used:
  3308 ;;		wreg
  3309 ;; Tracked objects:
  3310 ;;		On entry : 0/0
  3311 ;;		On exit  : 0/0
  3312 ;;		Unchanged: 0/0
  3313 ;; Data sizes:     COMMON   BANK0   BANK1
  3314 ;;      Params:         2       0       0
  3315 ;;      Locals:         0       0       0
  3316 ;;      Temps:          0       0       0
  3317 ;;      Totals:         2       0       0
  3318 ;;Total ram usage:        2 bytes
  3319 ;; Hardware stack levels used: 1
  3320 ;; Hardware stack levels required when called: 4
  3321 ;; This function calls:
  3322 ;;		Nothing
  3323 ;; This function is called by:
  3324 ;;		_appHandler
  3325 ;; This function uses a non-reentrant model
  3326 ;;
  3327                           
  3328     02DD                     _blinkHandler:	
  3329                           ;psect for function _blinkHandler
  3330                           
  3331     02DD                     l1620:	
  3332                           ;incstack = 0
  3333                           ; Regs used in _blinkHandler: [wreg]
  3334                           
  3335                           
  3336                           ;app.c: 175:     return 1;
  3337     02DD  3001               	movlw	1
  3338     02DE  00F2               	movwf	?_blinkHandler
  3339     02DF  3000               	movlw	0
  3340     02E0  00F3               	movwf	?_blinkHandler+1
  3341     02E1                     l514:
  3342     02E1  0008               	return
  3343     02E2                     __end_of_blinkHandler:
  3344                           
  3345                           	psect	text16
  3346     0149                     __ptext16:	
  3347 ;; *************** function ___llmod *****************
  3348 ;; Defined at:
  3349 ;;		line 5 in file "C:\Program Files\Microchip\xc8\v2.40\pic\sources\c99\common\llmod.c"
  3350 ;; Parameters:    Size  Location     Type
  3351 ;;  divisor         4    2[COMMON] unsigned long 
  3352 ;;  dividend        4    6[COMMON] unsigned long 
  3353 ;; Auto vars:     Size  Location     Type
  3354 ;;  counter         1    1[BANK0 ] unsigned char 
  3355 ;; Return value:  Size  Location     Type
  3356 ;;                  4    2[COMMON] unsigned long 
  3357 ;; Registers used:
  3358 ;;		wreg, status,2, status,0
  3359 ;; Tracked objects:
  3360 ;;		On entry : 0/0
  3361 ;;		On exit  : 0/0
  3362 ;;		Unchanged: 0/0
  3363 ;; Data sizes:     COMMON   BANK0   BANK1
  3364 ;;      Params:         8       0       0
  3365 ;;      Locals:         0       1       0
  3366 ;;      Temps:          0       1       0
  3367 ;;      Totals:         8       2       0
  3368 ;;Total ram usage:       10 bytes
  3369 ;; Hardware stack levels used: 1
  3370 ;; Hardware stack levels required when called: 4
  3371 ;; This function calls:
  3372 ;;		Nothing
  3373 ;; This function is called by:
  3374 ;;		_appHandler
  3375 ;; This function uses a non-reentrant model
  3376 ;;
  3377                           
  3378     0149                     ___llmod:	
  3379                           ;psect for function ___llmod
  3380                           
  3381     0149                     l1808:	
  3382                           ;incstack = 0
  3383                           ; Regs used in ___llmod: [wreg+status,2+status,0]
  3384                           
  3385     0149  0875               	movf	___llmod@divisor+3,w
  3386     014A  0474               	iorwf	___llmod@divisor+2,w
  3387     014B  0473               	iorwf	___llmod@divisor+1,w
  3388     014C  0472               	iorwf	___llmod@divisor,w
  3389     014D  1903               	skipnz
  3390     014E  2950               	goto	u421
  3391     014F  2951               	goto	u420
  3392     0150                     u421:
  3393     0150  298B               	goto	l1824
  3394     0151                     u420:
  3395     0151                     l1810:
  3396     0151  0020               	movlb	0	; select bank0
  3397     0152  01B3               	clrf	___llmod@counter
  3398     0153  0AB3               	incf	___llmod@counter,f
  3399     0154  2960               	goto	l1814
  3400     0155                     l1812:
  3401     0155  3001               	movlw	1
  3402     0156                     u435:
  3403     0156  35F2               	lslf	___llmod@divisor,f
  3404     0157  0DF3               	rlf	___llmod@divisor+1,f
  3405     0158  0DF4               	rlf	___llmod@divisor+2,f
  3406     0159  0DF5               	rlf	___llmod@divisor+3,f
  3407     015A  0B89               	decfsz	9,f
  3408     015B  2956               	goto	u435
  3409     015C  3001               	movlw	1
  3410     015D  00B2               	movwf	??___llmod
  3411     015E  0832               	movf	??___llmod,w
  3412     015F  07B3               	addwf	___llmod@counter,f
  3413     0160                     l1814:
  3414     0160  1FF5               	btfss	___llmod@divisor+3,7
  3415     0161  2963               	goto	u441
  3416     0162  2964               	goto	u440
  3417     0163                     u441:
  3418     0163  2955               	goto	l1812
  3419     0164                     u440:
  3420     0164                     l1816:
  3421     0164  0875               	movf	___llmod@divisor+3,w
  3422     0165  0279               	subwf	___llmod@dividend+3,w
  3423     0166  1D03               	skipz
  3424     0167  2972               	goto	u455
  3425     0168  0874               	movf	___llmod@divisor+2,w
  3426     0169  0278               	subwf	___llmod@dividend+2,w
  3427     016A  1D03               	skipz
  3428     016B  2972               	goto	u455
  3429     016C  0873               	movf	___llmod@divisor+1,w
  3430     016D  0277               	subwf	___llmod@dividend+1,w
  3431     016E  1D03               	skipz
  3432     016F  2972               	goto	u455
  3433     0170  0872               	movf	___llmod@divisor,w
  3434     0171  0276               	subwf	___llmod@dividend,w
  3435     0172                     u455:
  3436     0172  1C03               	skipc
  3437     0173  2975               	goto	u451
  3438     0174  2976               	goto	u450
  3439     0175                     u451:
  3440     0175  297E               	goto	l1820
  3441     0176                     u450:
  3442     0176                     l1818:
  3443     0176  0872               	movf	___llmod@divisor,w
  3444     0177  02F6               	subwf	___llmod@dividend,f
  3445     0178  0873               	movf	___llmod@divisor+1,w
  3446     0179  3BF7               	subwfb	___llmod@dividend+1,f
  3447     017A  0874               	movf	___llmod@divisor+2,w
  3448     017B  3BF8               	subwfb	___llmod@dividend+2,f
  3449     017C  0875               	movf	___llmod@divisor+3,w
  3450     017D  3BF9               	subwfb	___llmod@dividend+3,f
  3451     017E                     l1820:
  3452     017E  3001               	movlw	1
  3453     017F                     u465:
  3454     017F  36F5               	lsrf	___llmod@divisor+3,f
  3455     0180  0CF4               	rrf	___llmod@divisor+2,f
  3456     0181  0CF3               	rrf	___llmod@divisor+1,f
  3457     0182  0CF2               	rrf	___llmod@divisor,f
  3458     0183  0B89               	decfsz	9,f
  3459     0184  297F               	goto	u465
  3460     0185                     l1822:
  3461     0185  3001               	movlw	1
  3462     0186  02B3               	subwf	___llmod@counter,f
  3463     0187  1D03               	btfss	3,2
  3464     0188  298A               	goto	u471
  3465     0189  298B               	goto	u470
  3466     018A                     u471:
  3467     018A  2964               	goto	l1816
  3468     018B                     u470:
  3469     018B                     l1824:
  3470     018B  0879               	movf	___llmod@dividend+3,w
  3471     018C  00F5               	movwf	?___llmod+3
  3472     018D  0878               	movf	___llmod@dividend+2,w
  3473     018E  00F4               	movwf	?___llmod+2
  3474     018F  0877               	movf	___llmod@dividend+1,w
  3475     0190  00F3               	movwf	?___llmod+1
  3476     0191  0876               	movf	___llmod@dividend,w
  3477     0192  00F2               	movwf	?___llmod
  3478     0193                     l818:
  3479     0193  0008               	return
  3480     0194                     __end_of___llmod:
  3481                           
  3482                           	psect	text17
  3483     02F8                     __ptext17:	
  3484 ;; *************** function _TMR2_StartTimer *****************
  3485 ;; Defined at:
  3486 ;;		line 79 in file "mcc_generated_files/tmr2.c"
  3487 ;; Parameters:    Size  Location     Type
  3488 ;;		None
  3489 ;; Auto vars:     Size  Location     Type
  3490 ;;		None
  3491 ;; Return value:  Size  Location     Type
  3492 ;;                  1    wreg      void 
  3493 ;; Registers used:
  3494 ;;		None
  3495 ;; Tracked objects:
  3496 ;;		On entry : 0/0
  3497 ;;		On exit  : 0/0
  3498 ;;		Unchanged: 0/0
  3499 ;; Data sizes:     COMMON   BANK0   BANK1
  3500 ;;      Params:         0       0       0
  3501 ;;      Locals:         0       0       0
  3502 ;;      Temps:          0       0       0
  3503 ;;      Totals:         0       0       0
  3504 ;;Total ram usage:        0 bytes
  3505 ;; Hardware stack levels used: 1
  3506 ;; Hardware stack levels required when called: 4
  3507 ;; This function calls:
  3508 ;;		Nothing
  3509 ;; This function is called by:
  3510 ;;		_main
  3511 ;; This function uses a non-reentrant model
  3512 ;;
  3513                           
  3514     02F8                     _TMR2_StartTimer:	
  3515                           ;psect for function _TMR2_StartTimer
  3516                           
  3517     02F8                     l1254:	
  3518                           ;incstack = 0
  3519                           ; Regs used in _TMR2_StartTimer: []
  3520                           
  3521                           
  3522                           ;mcc_generated_files/tmr2.c: 82:     T2CONbits.TMR2ON = 1;
  3523     02F8  0020               	movlb	0	; select bank0
  3524     02F9  151C               	bsf	28,2	;volatile
  3525     02FA                     l42:
  3526     02FA  0008               	return
  3527     02FB                     __end_of_TMR2_StartTimer:
  3528                           
  3529                           	psect	text18
  3530     01D9                     __ptext18:	
  3531 ;; *************** function _SYSTEM_Initialize *****************
  3532 ;; Defined at:
  3533 ;;		line 50 in file "mcc_generated_files/mcc.c"
  3534 ;; Parameters:    Size  Location     Type
  3535 ;;		None
  3536 ;; Auto vars:     Size  Location     Type
  3537 ;;		None
  3538 ;; Return value:  Size  Location     Type
  3539 ;;                  1    wreg      void 
  3540 ;; Registers used:
  3541 ;;		wreg, status,2, status,0, pclath, cstack
  3542 ;; Tracked objects:
  3543 ;;		On entry : 0/0
  3544 ;;		On exit  : 0/0
  3545 ;;		Unchanged: 0/0
  3546 ;; Data sizes:     COMMON   BANK0   BANK1
  3547 ;;      Params:         0       0       0
  3548 ;;      Locals:         0       0       0
  3549 ;;      Temps:          0       0       0
  3550 ;;      Totals:         0       0       0
  3551 ;;Total ram usage:        0 bytes
  3552 ;; Hardware stack levels used: 1
  3553 ;; Hardware stack levels required when called: 6
  3554 ;; This function calls:
  3555 ;;		_OSCILLATOR_Initialize
  3556 ;;		_PIN_MANAGER_Initialize
  3557 ;;		_PWM1_Initialize
  3558 ;;		_PWM2_Initialize
  3559 ;;		_PWM3_Initialize
  3560 ;;		_TMR1_Initialize
  3561 ;;		_TMR2_Initialize
  3562 ;;		_WDT_Initialize
  3563 ;; This function is called by:
  3564 ;;		_main
  3565 ;; This function uses a non-reentrant model
  3566 ;;
  3567                           
  3568     01D9                     _SYSTEM_Initialize:	
  3569                           ;psect for function _SYSTEM_Initialize
  3570                           
  3571     01D9                     l1644:	
  3572                           ;incstack = 0
  3573                           ; Regs used in _SYSTEM_Initialize: [wreg+status,2+status,0+pclath+cstack]
  3574                           
  3575                           
  3576                           ;mcc_generated_files/mcc.c: 53:     PIN_MANAGER_Initialize();
  3577     01D9  3181  21BF  3181   	fcall	_PIN_MANAGER_Initialize
  3578                           
  3579                           ;mcc_generated_files/mcc.c: 54:     OSCILLATOR_Initialize();
  3580     01DC  3182  22B8  3181   	fcall	_OSCILLATOR_Initialize
  3581                           
  3582                           ;mcc_generated_files/mcc.c: 55:     WDT_Initialize();
  3583     01DF  3182  22E2  3181   	fcall	_WDT_Initialize
  3584                           
  3585                           ;mcc_generated_files/mcc.c: 56:     PWM1_Initialize();
  3586     01E2  3181  21F2  3181   	fcall	_PWM1_Initialize
  3587                           
  3588                           ;mcc_generated_files/mcc.c: 57:     PWM2_Initialize();
  3589     01E5  3182  223A  3181   	fcall	_PWM2_Initialize
  3590                           
  3591                           ;mcc_generated_files/mcc.c: 58:     PWM3_Initialize();
  3592     01E8  3182  2223  3181   	fcall	_PWM3_Initialize
  3593                           
  3594                           ;mcc_generated_files/mcc.c: 59:     TMR2_Initialize();
  3595     01EB  3182  22B0  3181   	fcall	_TMR2_Initialize
  3596                           
  3597                           ;mcc_generated_files/mcc.c: 60:     TMR1_Initialize();
  3598     01EE  3182  220B  3181   	fcall	_TMR1_Initialize
  3599     01F1                     l85:
  3600     01F1  0008               	return
  3601     01F2                     __end_of_SYSTEM_Initialize:
  3602                           
  3603                           	psect	text19
  3604     02E2                     __ptext19:	
  3605 ;; *************** function _WDT_Initialize *****************
  3606 ;; Defined at:
  3607 ;;		line 73 in file "mcc_generated_files/mcc.c"
  3608 ;; Parameters:    Size  Location     Type
  3609 ;;		None
  3610 ;; Auto vars:     Size  Location     Type
  3611 ;;		None
  3612 ;; Return value:  Size  Location     Type
  3613 ;;                  1    wreg      void 
  3614 ;; Registers used:
  3615 ;;		wreg
  3616 ;; Tracked objects:
  3617 ;;		On entry : 0/0
  3618 ;;		On exit  : 0/0
  3619 ;;		Unchanged: 0/0
  3620 ;; Data sizes:     COMMON   BANK0   BANK1
  3621 ;;      Params:         0       0       0
  3622 ;;      Locals:         0       0       0
  3623 ;;      Temps:          0       0       0
  3624 ;;      Totals:         0       0       0
  3625 ;;Total ram usage:        0 bytes
  3626 ;; Hardware stack levels used: 1
  3627 ;; Hardware stack levels required when called: 4
  3628 ;; This function calls:
  3629 ;;		Nothing
  3630 ;; This function is called by:
  3631 ;;		_SYSTEM_Initialize
  3632 ;; This function uses a non-reentrant model
  3633 ;;
  3634                           
  3635     02E2                     _WDT_Initialize:	
  3636                           ;psect for function _WDT_Initialize
  3637                           
  3638     02E2                     l1100:	
  3639                           ;incstack = 0
  3640                           ; Regs used in _WDT_Initialize: [wreg]
  3641                           
  3642                           
  3643                           ;mcc_generated_files/mcc.c: 76:     WDTCON = 0x16;
  3644     02E2  3016               	movlw	22
  3645     02E3  0021               	movlb	1	; select bank1
  3646     02E4  0097               	movwf	23	;volatile
  3647     02E5                     l91:
  3648     02E5  0008               	return
  3649     02E6                     __end_of_WDT_Initialize:
  3650                           
  3651                           	psect	text20
  3652     02B0                     __ptext20:	
  3653 ;; *************** function _TMR2_Initialize *****************
  3654 ;; Defined at:
  3655 ;;		line 62 in file "mcc_generated_files/tmr2.c"
  3656 ;; Parameters:    Size  Location     Type
  3657 ;;		None
  3658 ;; Auto vars:     Size  Location     Type
  3659 ;;		None
  3660 ;; Return value:  Size  Location     Type
  3661 ;;                  1    wreg      void 
  3662 ;; Registers used:
  3663 ;;		wreg, status,2
  3664 ;; Tracked objects:
  3665 ;;		On entry : 0/0
  3666 ;;		On exit  : 0/0
  3667 ;;		Unchanged: 0/0
  3668 ;; Data sizes:     COMMON   BANK0   BANK1
  3669 ;;      Params:         0       0       0
  3670 ;;      Locals:         0       0       0
  3671 ;;      Temps:          0       0       0
  3672 ;;      Totals:         0       0       0
  3673 ;;Total ram usage:        0 bytes
  3674 ;; Hardware stack levels used: 1
  3675 ;; Hardware stack levels required when called: 4
  3676 ;; This function calls:
  3677 ;;		Nothing
  3678 ;; This function is called by:
  3679 ;;		_SYSTEM_Initialize
  3680 ;; This function uses a non-reentrant model
  3681 ;;
  3682                           
  3683     02B0                     _TMR2_Initialize:	
  3684                           ;psect for function _TMR2_Initialize
  3685                           
  3686     02B0                     l1086:	
  3687                           ;incstack = 0
  3688                           ; Regs used in _TMR2_Initialize: [wreg+status,2]
  3689                           
  3690                           
  3691                           ;mcc_generated_files/tmr2.c: 67:     PR2 = 0xF9;
  3692     02B0  30F9               	movlw	249
  3693     02B1  0020               	movlb	0	; select bank0
  3694     02B2  009B               	movwf	27	;volatile
  3695     02B3                     l1088:
  3696                           
  3697                           ;mcc_generated_files/tmr2.c: 70:     TMR2 = 0x00;
  3698     02B3  019A               	clrf	26	;volatile
  3699     02B4                     l1090:
  3700                           
  3701                           ;mcc_generated_files/tmr2.c: 73:     PIR1bits.TMR2IF = 0;
  3702     02B4  1091               	bcf	17,1	;volatile
  3703     02B5                     l1092:
  3704                           
  3705                           ;mcc_generated_files/tmr2.c: 76:     T2CON = 0x06;
  3706     02B5  3006               	movlw	6
  3707     02B6  009C               	movwf	28	;volatile
  3708     02B7                     l39:
  3709     02B7  0008               	return
  3710     02B8                     __end_of_TMR2_Initialize:
  3711                           
  3712                           	psect	text21
  3713     020B                     __ptext21:	
  3714 ;; *************** function _TMR1_Initialize *****************
  3715 ;; Defined at:
  3716 ;;		line 64 in file "mcc_generated_files/tmr1.c"
  3717 ;; Parameters:    Size  Location     Type
  3718 ;;		None
  3719 ;; Auto vars:     Size  Location     Type
  3720 ;;		None
  3721 ;; Return value:  Size  Location     Type
  3722 ;;                  1    wreg      void 
  3723 ;; Registers used:
  3724 ;;		wreg, status,2, status,0, pclath, cstack
  3725 ;; Tracked objects:
  3726 ;;		On entry : 0/0
  3727 ;;		On exit  : 0/0
  3728 ;;		Unchanged: 0/0
  3729 ;; Data sizes:     COMMON   BANK0   BANK1
  3730 ;;      Params:         0       0       0
  3731 ;;      Locals:         0       0       0
  3732 ;;      Temps:          0       0       0
  3733 ;;      Totals:         0       0       0
  3734 ;;Total ram usage:        0 bytes
  3735 ;; Hardware stack levels used: 1
  3736 ;; Hardware stack levels required when called: 5
  3737 ;; This function calls:
  3738 ;;		_TMR1_SetInterruptHandler
  3739 ;; This function is called by:
  3740 ;;		_SYSTEM_Initialize
  3741 ;; This function uses a non-reentrant model
  3742 ;;
  3743                           
  3744     020B                     _TMR1_Initialize:	
  3745                           ;psect for function _TMR1_Initialize
  3746                           
  3747     020B                     l1570:	
  3748                           ;incstack = 0
  3749                           ; Regs used in _TMR1_Initialize: [wreg+status,2+status,0+pclath+cstack]
  3750                           
  3751                           
  3752                           ;mcc_generated_files/tmr1.c: 69:     T1GCON = 0x00;
  3753     020B  0020               	movlb	0	; select bank0
  3754     020C  0199               	clrf	25	;volatile
  3755     020D                     l1572:
  3756                           
  3757                           ;mcc_generated_files/tmr1.c: 72:     TMR1H = 0xC1;
  3758     020D  30C1               	movlw	193
  3759     020E  0097               	movwf	23	;volatile
  3760     020F                     l1574:
  3761                           
  3762                           ;mcc_generated_files/tmr1.c: 75:     TMR1L = 0x80;
  3763     020F  3080               	movlw	128
  3764     0210  0096               	movwf	22	;volatile
  3765     0211                     l1576:
  3766                           
  3767                           ;mcc_generated_files/tmr1.c: 78:     PIR1bits.TMR1IF = 0;
  3768     0211  1011               	bcf	17,0	;volatile
  3769     0212                     l1578:
  3770                           
  3771                           ;mcc_generated_files/tmr1.c: 81:     timer1ReloadVal=(uint16_t)((TMR1H << 8) | TMR1L);
  3772     0212  0817               	movf	23,w	;volatile
  3773     0213  00B1               	movwf	_timer1ReloadVal+1	;volatile
  3774     0214  0816               	movf	22,w	;volatile
  3775     0215  00B0               	movwf	_timer1ReloadVal	;volatile
  3776     0216                     l1580:
  3777                           
  3778                           ;mcc_generated_files/tmr1.c: 84:     PIE1bits.TMR1IE = 1;
  3779     0216  0021               	movlb	1	; select bank1
  3780     0217  1411               	bsf	17,0	;volatile
  3781     0218                     l1582:
  3782                           
  3783                           ;mcc_generated_files/tmr1.c: 87:     TMR1_SetInterruptHandler(TMR1_DefaultInterruptHandl
      +                          er);
  3784     0218  30FC               	movlw	low _TMR1_DefaultInterruptHandler
  3785     0219  00F2               	movwf	TMR1_SetInterruptHandler@InterruptHandler
  3786     021A  3002               	movlw	high _TMR1_DefaultInterruptHandler
  3787     021B  00F3               	movwf	TMR1_SetInterruptHandler@InterruptHandler+1
  3788     021C  3182  22D7  3182   	fcall	_TMR1_SetInterruptHandler
  3789     021F                     l1584:
  3790                           
  3791                           ;mcc_generated_files/tmr1.c: 90:     T1CON = 0x41;
  3792     021F  3041               	movlw	65
  3793     0220  0020               	movlb	0	; select bank0
  3794     0221  0098               	movwf	24	;volatile
  3795     0222                     l120:
  3796     0222  0008               	return
  3797     0223                     __end_of_TMR1_Initialize:
  3798                           
  3799                           	psect	text22
  3800     02D7                     __ptext22:	
  3801 ;; *************** function _TMR1_SetInterruptHandler *****************
  3802 ;; Defined at:
  3803 ;;		line 178 in file "mcc_generated_files/tmr1.c"
  3804 ;; Parameters:    Size  Location     Type
  3805 ;;  InterruptHan    2    2[COMMON] PTR FTN()void 
  3806 ;;		 -> msTick(1), TMR1_DefaultInterruptHandler(1), 
  3807 ;; Auto vars:     Size  Location     Type
  3808 ;;		None
  3809 ;; Return value:  Size  Location     Type
  3810 ;;                  1    wreg      void 
  3811 ;; Registers used:
  3812 ;;		wreg
  3813 ;; Tracked objects:
  3814 ;;		On entry : 0/0
  3815 ;;		On exit  : 0/0
  3816 ;;		Unchanged: 0/0
  3817 ;; Data sizes:     COMMON   BANK0   BANK1
  3818 ;;      Params:         2       0       0
  3819 ;;      Locals:         0       0       0
  3820 ;;      Temps:          0       0       0
  3821 ;;      Totals:         2       0       0
  3822 ;;Total ram usage:        2 bytes
  3823 ;; Hardware stack levels used: 1
  3824 ;; Hardware stack levels required when called: 4
  3825 ;; This function calls:
  3826 ;;		Nothing
  3827 ;; This function is called by:
  3828 ;;		_TMR1_Initialize
  3829 ;;		_appInit
  3830 ;; This function uses a non-reentrant model
  3831 ;;
  3832                           
  3833     02D7                     _TMR1_SetInterruptHandler:	
  3834                           ;psect for function _TMR1_SetInterruptHandler
  3835                           
  3836     02D7                     l1540:	
  3837                           ;incstack = 0
  3838                           ; Regs used in _TMR1_SetInterruptHandler: [wreg]
  3839                           
  3840                           
  3841                           ;mcc_generated_files/tmr1.c: 179:     TMR1_InterruptHandler = InterruptHandler;
  3842     02D7  0873               	movf	TMR1_SetInterruptHandler@InterruptHandler+1,w
  3843     02D8  0020               	movlb	0	; select bank0
  3844     02D9  00AF               	movwf	_TMR1_InterruptHandler+1
  3845     02DA  0872               	movf	TMR1_SetInterruptHandler@InterruptHandler,w
  3846     02DB  00AE               	movwf	_TMR1_InterruptHandler
  3847     02DC                     l153:
  3848     02DC  0008               	return
  3849     02DD                     __end_of_TMR1_SetInterruptHandler:
  3850                           
  3851                           	psect	text23
  3852     0223                     __ptext23:	
  3853 ;; *************** function _PWM3_Initialize *****************
  3854 ;; Defined at:
  3855 ;;		line 58 in file "mcc_generated_files/pwm3.c"
  3856 ;; Parameters:    Size  Location     Type
  3857 ;;		None
  3858 ;; Auto vars:     Size  Location     Type
  3859 ;;		None
  3860 ;; Return value:  Size  Location     Type
  3861 ;;                  1    wreg      void 
  3862 ;; Registers used:
  3863 ;;		wreg, status,2
  3864 ;; Tracked objects:
  3865 ;;		On entry : 0/0
  3866 ;;		On exit  : 0/0
  3867 ;;		Unchanged: 0/0
  3868 ;; Data sizes:     COMMON   BANK0   BANK1
  3869 ;;      Params:         0       0       0
  3870 ;;      Locals:         0       0       0
  3871 ;;      Temps:          0       0       0
  3872 ;;      Totals:         0       0       0
  3873 ;;Total ram usage:        0 bytes
  3874 ;; Hardware stack levels used: 1
  3875 ;; Hardware stack levels required when called: 4
  3876 ;; This function calls:
  3877 ;;		Nothing
  3878 ;; This function is called by:
  3879 ;;		_SYSTEM_Initialize
  3880 ;; This function uses a non-reentrant model
  3881 ;;
  3882                           
  3883     0223                     _PWM3_Initialize:	
  3884                           ;psect for function _PWM3_Initialize
  3885                           
  3886     0223                     l1154:	
  3887                           ;incstack = 0
  3888                           ; Regs used in _PWM3_Initialize: [wreg+status,2]
  3889                           
  3890                           
  3891                           ;mcc_generated_files/pwm3.c: 63:     PWM3INTE = 0x00;
  3892     0223  003B               	movlb	27	; select bank27
  3893     0224  01BC               	clrf	60	;volatile
  3894                           
  3895                           ;mcc_generated_files/pwm3.c: 66:     PWM3INTF = 0x00;
  3896     0225  01BD               	clrf	61	;volatile
  3897     0226                     l1156:
  3898                           
  3899                           ;mcc_generated_files/pwm3.c: 69:     PWM3CLKCON = 0x21;
  3900     0226  3021               	movlw	33
  3901     0227  00BE               	movwf	62	;volatile
  3902     0228                     l1158:
  3903                           
  3904                           ;mcc_generated_files/pwm3.c: 72:     PWM3LDCON = 0x00;
  3905     0228  01BF               	clrf	63	;volatile
  3906     0229                     l1160:
  3907                           
  3908                           ;mcc_generated_files/pwm3.c: 75:     PWM3OFCON = 0x00;
  3909     0229  01C0               	clrf	64	;volatile
  3910     022A                     l1162:
  3911                           
  3912                           ;mcc_generated_files/pwm3.c: 78:     PWM3PHH = 0x00;
  3913     022A  01B2               	clrf	50	;volatile
  3914     022B                     l1164:
  3915                           
  3916                           ;mcc_generated_files/pwm3.c: 81:     PWM3PHL = 0x00;
  3917     022B  01B1               	clrf	49	;volatile
  3918     022C                     l1166:
  3919                           
  3920                           ;mcc_generated_files/pwm3.c: 84:     PWM3DCH = 0x00;
  3921     022C  01B4               	clrf	52	;volatile
  3922     022D                     l1168:
  3923                           
  3924                           ;mcc_generated_files/pwm3.c: 87:     PWM3DCL = 0x00;
  3925     022D  01B3               	clrf	51	;volatile
  3926     022E                     l1170:
  3927                           
  3928                           ;mcc_generated_files/pwm3.c: 90:     PWM3PRH = 0xC3;
  3929     022E  30C3               	movlw	195
  3930     022F  00B6               	movwf	54	;volatile
  3931     0230                     l1172:
  3932                           
  3933                           ;mcc_generated_files/pwm3.c: 93:     PWM3PRL = 0x50;
  3934     0230  3050               	movlw	80
  3935     0231  00B5               	movwf	53	;volatile
  3936     0232                     l1174:
  3937                           
  3938                           ;mcc_generated_files/pwm3.c: 96:     PWM3OFH = 0x00;
  3939     0232  01B8               	clrf	56	;volatile
  3940                           
  3941                           ;mcc_generated_files/pwm3.c: 99:     PWM3OFL = 0x01;
  3942     0233  3001               	movlw	1
  3943     0234  00B7               	movwf	55	;volatile
  3944     0235                     l1176:
  3945                           
  3946                           ;mcc_generated_files/pwm3.c: 102:     PWM3TMRH = 0x00;
  3947     0235  01BA               	clrf	58	;volatile
  3948     0236                     l1178:
  3949                           
  3950                           ;mcc_generated_files/pwm3.c: 105:     PWM3TMRL = 0x00;
  3951     0236  01B9               	clrf	57	;volatile
  3952                           
  3953                           ;mcc_generated_files/pwm3.c: 108:     PWM3CON = 0xC0;
  3954     0237  30C0               	movlw	192
  3955     0238  00BB               	movwf	59	;volatile
  3956     0239                     l294:
  3957     0239  0008               	return
  3958     023A                     __end_of_PWM3_Initialize:
  3959                           
  3960                           	psect	text24
  3961     023A                     __ptext24:	
  3962 ;; *************** function _PWM2_Initialize *****************
  3963 ;; Defined at:
  3964 ;;		line 58 in file "mcc_generated_files/pwm2.c"
  3965 ;; Parameters:    Size  Location     Type
  3966 ;;		None
  3967 ;; Auto vars:     Size  Location     Type
  3968 ;;		None
  3969 ;; Return value:  Size  Location     Type
  3970 ;;                  1    wreg      void 
  3971 ;; Registers used:
  3972 ;;		wreg, status,2
  3973 ;; Tracked objects:
  3974 ;;		On entry : 0/0
  3975 ;;		On exit  : 0/0
  3976 ;;		Unchanged: 0/0
  3977 ;; Data sizes:     COMMON   BANK0   BANK1
  3978 ;;      Params:         0       0       0
  3979 ;;      Locals:         0       0       0
  3980 ;;      Temps:          0       0       0
  3981 ;;      Totals:         0       0       0
  3982 ;;Total ram usage:        0 bytes
  3983 ;; Hardware stack levels used: 1
  3984 ;; Hardware stack levels required when called: 4
  3985 ;; This function calls:
  3986 ;;		Nothing
  3987 ;; This function is called by:
  3988 ;;		_SYSTEM_Initialize
  3989 ;; This function uses a non-reentrant model
  3990 ;;
  3991                           
  3992     023A                     _PWM2_Initialize:	
  3993                           ;psect for function _PWM2_Initialize
  3994                           
  3995     023A                     l1128:	
  3996                           ;incstack = 0
  3997                           ; Regs used in _PWM2_Initialize: [wreg+status,2]
  3998                           
  3999                           
  4000                           ;mcc_generated_files/pwm2.c: 63:     PWM2INTE = 0x00;
  4001     023A  003B               	movlb	27	; select bank27
  4002     023B  01AC               	clrf	44	;volatile
  4003                           
  4004                           ;mcc_generated_files/pwm2.c: 66:     PWM2INTF = 0x00;
  4005     023C  01AD               	clrf	45	;volatile
  4006     023D                     l1130:
  4007                           
  4008                           ;mcc_generated_files/pwm2.c: 69:     PWM2CLKCON = 0x21;
  4009     023D  3021               	movlw	33
  4010     023E  00AE               	movwf	46	;volatile
  4011     023F                     l1132:
  4012                           
  4013                           ;mcc_generated_files/pwm2.c: 72:     PWM2LDCON = 0x00;
  4014     023F  01AF               	clrf	47	;volatile
  4015     0240                     l1134:
  4016                           
  4017                           ;mcc_generated_files/pwm2.c: 75:     PWM2OFCON = 0x00;
  4018     0240  01B0               	clrf	48	;volatile
  4019     0241                     l1136:
  4020                           
  4021                           ;mcc_generated_files/pwm2.c: 78:     PWM2PHH = 0x00;
  4022     0241  01A2               	clrf	34	;volatile
  4023     0242                     l1138:
  4024                           
  4025                           ;mcc_generated_files/pwm2.c: 81:     PWM2PHL = 0x00;
  4026     0242  01A1               	clrf	33	;volatile
  4027     0243                     l1140:
  4028                           
  4029                           ;mcc_generated_files/pwm2.c: 84:     PWM2DCH = 0x00;
  4030     0243  01A4               	clrf	36	;volatile
  4031     0244                     l1142:
  4032                           
  4033                           ;mcc_generated_files/pwm2.c: 87:     PWM2DCL = 0x00;
  4034     0244  01A3               	clrf	35	;volatile
  4035     0245                     l1144:
  4036                           
  4037                           ;mcc_generated_files/pwm2.c: 90:     PWM2PRH = 0xC3;
  4038     0245  30C3               	movlw	195
  4039     0246  00A6               	movwf	38	;volatile
  4040     0247                     l1146:
  4041                           
  4042                           ;mcc_generated_files/pwm2.c: 93:     PWM2PRL = 0x50;
  4043     0247  3050               	movlw	80
  4044     0248  00A5               	movwf	37	;volatile
  4045     0249                     l1148:
  4046                           
  4047                           ;mcc_generated_files/pwm2.c: 96:     PWM2OFH = 0x00;
  4048     0249  01A8               	clrf	40	;volatile
  4049                           
  4050                           ;mcc_generated_files/pwm2.c: 99:     PWM2OFL = 0x01;
  4051     024A  3001               	movlw	1
  4052     024B  00A7               	movwf	39	;volatile
  4053     024C                     l1150:
  4054                           
  4055                           ;mcc_generated_files/pwm2.c: 102:     PWM2TMRH = 0x00;
  4056     024C  01AA               	clrf	42	;volatile
  4057     024D                     l1152:
  4058                           
  4059                           ;mcc_generated_files/pwm2.c: 105:     PWM2TMRL = 0x00;
  4060     024D  01A9               	clrf	41	;volatile
  4061                           
  4062                           ;mcc_generated_files/pwm2.c: 108:     PWM2CON = 0xC0;
  4063     024E  30C0               	movlw	192
  4064     024F  00AB               	movwf	43	;volatile
  4065     0250                     l374:
  4066     0250  0008               	return
  4067     0251                     __end_of_PWM2_Initialize:
  4068                           
  4069                           	psect	text25
  4070     01F2                     __ptext25:	
  4071 ;; *************** function _PWM1_Initialize *****************
  4072 ;; Defined at:
  4073 ;;		line 58 in file "mcc_generated_files/pwm1.c"
  4074 ;; Parameters:    Size  Location     Type
  4075 ;;		None
  4076 ;; Auto vars:     Size  Location     Type
  4077 ;;		None
  4078 ;; Return value:  Size  Location     Type
  4079 ;;                  1    wreg      void 
  4080 ;; Registers used:
  4081 ;;		wreg, status,2
  4082 ;; Tracked objects:
  4083 ;;		On entry : 0/0
  4084 ;;		On exit  : 0/0
  4085 ;;		Unchanged: 0/0
  4086 ;; Data sizes:     COMMON   BANK0   BANK1
  4087 ;;      Params:         0       0       0
  4088 ;;      Locals:         0       0       0
  4089 ;;      Temps:          0       0       0
  4090 ;;      Totals:         0       0       0
  4091 ;;Total ram usage:        0 bytes
  4092 ;; Hardware stack levels used: 1
  4093 ;; Hardware stack levels required when called: 4
  4094 ;; This function calls:
  4095 ;;		Nothing
  4096 ;; This function is called by:
  4097 ;;		_SYSTEM_Initialize
  4098 ;; This function uses a non-reentrant model
  4099 ;;
  4100                           
  4101     01F2                     _PWM1_Initialize:	
  4102                           ;psect for function _PWM1_Initialize
  4103                           
  4104     01F2                     l1102:	
  4105                           ;incstack = 0
  4106                           ; Regs used in _PWM1_Initialize: [wreg+status,2]
  4107                           
  4108                           
  4109                           ;mcc_generated_files/pwm1.c: 63:     PWM1INTE = 0x00;
  4110     01F2  003B               	movlb	27	; select bank27
  4111     01F3  019C               	clrf	28	;volatile
  4112                           
  4113                           ;mcc_generated_files/pwm1.c: 66:     PWM1INTF = 0x00;
  4114     01F4  019D               	clrf	29	;volatile
  4115     01F5                     l1104:
  4116                           
  4117                           ;mcc_generated_files/pwm1.c: 69:     PWM1CLKCON = 0x21;
  4118     01F5  3021               	movlw	33
  4119     01F6  009E               	movwf	30	;volatile
  4120     01F7                     l1106:
  4121                           
  4122                           ;mcc_generated_files/pwm1.c: 72:     PWM1LDCON = 0x00;
  4123     01F7  019F               	clrf	31	;volatile
  4124     01F8                     l1108:
  4125                           
  4126                           ;mcc_generated_files/pwm1.c: 75:     PWM1OFCON = 0x00;
  4127     01F8  01A0               	clrf	32	;volatile
  4128     01F9                     l1110:
  4129                           
  4130                           ;mcc_generated_files/pwm1.c: 78:     PWM1PHH = 0x00;
  4131     01F9  0192               	clrf	18	;volatile
  4132     01FA                     l1112:
  4133                           
  4134                           ;mcc_generated_files/pwm1.c: 81:     PWM1PHL = 0x00;
  4135     01FA  0191               	clrf	17	;volatile
  4136     01FB                     l1114:
  4137                           
  4138                           ;mcc_generated_files/pwm1.c: 84:     PWM1DCH = 0x61;
  4139     01FB  3061               	movlw	97
  4140     01FC  0094               	movwf	20	;volatile
  4141     01FD                     l1116:
  4142                           
  4143                           ;mcc_generated_files/pwm1.c: 87:     PWM1DCL = 0xA8;
  4144     01FD  30A8               	movlw	168
  4145     01FE  0093               	movwf	19	;volatile
  4146     01FF                     l1118:
  4147                           
  4148                           ;mcc_generated_files/pwm1.c: 90:     PWM1PRH = 0xC3;
  4149     01FF  30C3               	movlw	195
  4150     0200  0096               	movwf	22	;volatile
  4151     0201                     l1120:
  4152                           
  4153                           ;mcc_generated_files/pwm1.c: 93:     PWM1PRL = 0x50;
  4154     0201  3050               	movlw	80
  4155     0202  0095               	movwf	21	;volatile
  4156     0203                     l1122:
  4157                           
  4158                           ;mcc_generated_files/pwm1.c: 96:     PWM1OFH = 0x00;
  4159     0203  0198               	clrf	24	;volatile
  4160                           
  4161                           ;mcc_generated_files/pwm1.c: 99:     PWM1OFL = 0x07;
  4162     0204  3007               	movlw	7
  4163     0205  0097               	movwf	23	;volatile
  4164     0206                     l1124:
  4165                           
  4166                           ;mcc_generated_files/pwm1.c: 102:     PWM1TMRH = 0x00;
  4167     0206  019A               	clrf	26	;volatile
  4168     0207                     l1126:
  4169                           
  4170                           ;mcc_generated_files/pwm1.c: 105:     PWM1TMRL = 0x00;
  4171     0207  0199               	clrf	25	;volatile
  4172                           
  4173                           ;mcc_generated_files/pwm1.c: 108:     PWM1CON = 0xC0;
  4174     0208  30C0               	movlw	192
  4175     0209  009B               	movwf	27	;volatile
  4176     020A                     l214:
  4177     020A  0008               	return
  4178     020B                     __end_of_PWM1_Initialize:
  4179                           
  4180                           	psect	text26
  4181     01BF                     __ptext26:	
  4182 ;; *************** function _PIN_MANAGER_Initialize *****************
  4183 ;; Defined at:
  4184 ;;		line 55 in file "mcc_generated_files/pin_manager.c"
  4185 ;; Parameters:    Size  Location     Type
  4186 ;;		None
  4187 ;; Auto vars:     Size  Location     Type
  4188 ;;		None
  4189 ;; Return value:  Size  Location     Type
  4190 ;;                  1    wreg      void 
  4191 ;; Registers used:
  4192 ;;		wreg, status,2
  4193 ;; Tracked objects:
  4194 ;;		On entry : 0/0
  4195 ;;		On exit  : 0/0
  4196 ;;		Unchanged: 0/0
  4197 ;; Data sizes:     COMMON   BANK0   BANK1
  4198 ;;      Params:         0       0       0
  4199 ;;      Locals:         0       0       0
  4200 ;;      Temps:          0       0       0
  4201 ;;      Totals:         0       0       0
  4202 ;;Total ram usage:        0 bytes
  4203 ;; Hardware stack levels used: 1
  4204 ;; Hardware stack levels required when called: 4
  4205 ;; This function calls:
  4206 ;;		Nothing
  4207 ;; This function is called by:
  4208 ;;		_SYSTEM_Initialize
  4209 ;; This function uses a non-reentrant model
  4210 ;;
  4211                           
  4212     01BF                     _PIN_MANAGER_Initialize:	
  4213                           ;psect for function _PIN_MANAGER_Initialize
  4214                           
  4215     01BF                     l1076:	
  4216                           ;incstack = 0
  4217                           ; Regs used in _PIN_MANAGER_Initialize: [wreg+status,2]
  4218                           
  4219                           
  4220                           ;mcc_generated_files/pin_manager.c: 60:     LATA = 0x01;
  4221     01BF  3001               	movlw	1
  4222     01C0  0022               	movlb	2	; select bank2
  4223     01C1  008C               	movwf	12	;volatile
  4224                           
  4225                           ;mcc_generated_files/pin_manager.c: 65:     TRISA = 0x0B;
  4226     01C2  300B               	movlw	11
  4227     01C3  0021               	movlb	1	; select bank1
  4228     01C4  008C               	movwf	12	;volatile
  4229                           
  4230                           ;mcc_generated_files/pin_manager.c: 70:     ANSELA = 0x06;
  4231     01C5  3006               	movlw	6
  4232     01C6  0023               	movlb	3	; select bank3
  4233     01C7  008C               	movwf	12	;volatile
  4234     01C8                     l1078:
  4235                           
  4236                           ;mcc_generated_files/pin_manager.c: 75:     WPUA = 0x00;
  4237     01C8  0024               	movlb	4	; select bank4
  4238     01C9  018C               	clrf	12	;volatile
  4239     01CA                     l1080:
  4240                           
  4241                           ;mcc_generated_files/pin_manager.c: 76:     WPUAbits.WPUA0 = 1;
  4242     01CA  140C               	bsf	12,0	;volatile
  4243     01CB                     l1082:
  4244                           
  4245                           ;mcc_generated_files/pin_manager.c: 77:     OPTION_REGbits.nWPUEN = 0;
  4246     01CB  0021               	movlb	1	; select bank1
  4247     01CC  1395               	bcf	21,7	;volatile
  4248     01CD                     l1084:
  4249                           
  4250                           ;mcc_generated_files/pin_manager.c: 82:     ODCONA = 0x00;
  4251     01CD  0025               	movlb	5	; select bank5
  4252     01CE  018C               	clrf	12	;volatile
  4253                           
  4254                           ;mcc_generated_files/pin_manager.c: 87:     SLRCONA = 0x37;
  4255     01CF  3037               	movlw	55
  4256     01D0  0026               	movlb	6	; select bank6
  4257     01D1  008C               	movwf	12	;volatile
  4258                           
  4259                           ;mcc_generated_files/pin_manager.c: 92:     INLVLA = 0x3F;
  4260     01D2  303F               	movlw	63
  4261     01D3  0027               	movlb	7	; select bank7
  4262     01D4  008C               	movwf	12	;volatile
  4263                           
  4264                           ;mcc_generated_files/pin_manager.c: 97:     APFCON = 0x03;
  4265     01D5  3003               	movlw	3
  4266     01D6  0022               	movlb	2	; select bank2
  4267     01D7  009D               	movwf	29	;volatile
  4268     01D8                     l23:
  4269     01D8  0008               	return
  4270     01D9                     __end_of_PIN_MANAGER_Initialize:
  4271                           
  4272                           	psect	text27
  4273     02B8                     __ptext27:	
  4274 ;; *************** function _OSCILLATOR_Initialize *****************
  4275 ;; Defined at:
  4276 ;;		line 63 in file "mcc_generated_files/mcc.c"
  4277 ;; Parameters:    Size  Location     Type
  4278 ;;		None
  4279 ;; Auto vars:     Size  Location     Type
  4280 ;;		None
  4281 ;; Return value:  Size  Location     Type
  4282 ;;                  1    wreg      void 
  4283 ;; Registers used:
  4284 ;;		wreg, status,2
  4285 ;; Tracked objects:
  4286 ;;		On entry : 0/0
  4287 ;;		On exit  : 0/0
  4288 ;;		Unchanged: 0/0
  4289 ;; Data sizes:     COMMON   BANK0   BANK1
  4290 ;;      Params:         0       0       0
  4291 ;;      Locals:         0       0       0
  4292 ;;      Temps:          0       0       0
  4293 ;;      Totals:         0       0       0
  4294 ;;Total ram usage:        0 bytes
  4295 ;; Hardware stack levels used: 1
  4296 ;; Hardware stack levels required when called: 4
  4297 ;; This function calls:
  4298 ;;		Nothing
  4299 ;; This function is called by:
  4300 ;;		_SYSTEM_Initialize
  4301 ;; This function uses a non-reentrant model
  4302 ;;
  4303                           
  4304     02B8                     _OSCILLATOR_Initialize:	
  4305                           ;psect for function _OSCILLATOR_Initialize
  4306                           
  4307     02B8                     l1094:	
  4308                           ;incstack = 0
  4309                           ; Regs used in _OSCILLATOR_Initialize: [wreg+status,2]
  4310                           
  4311                           
  4312                           ;mcc_generated_files/mcc.c: 66:     OSCCON = 0x78;
  4313     02B8  3078               	movlw	120
  4314     02B9  0021               	movlb	1	; select bank1
  4315     02BA  0099               	movwf	25	;volatile
  4316     02BB                     l1096:
  4317                           
  4318                           ;mcc_generated_files/mcc.c: 68:     OSCTUNE = 0x00;
  4319     02BB  0198               	clrf	24	;volatile
  4320     02BC                     l1098:
  4321                           
  4322                           ;mcc_generated_files/mcc.c: 70:     BORCON = 0x00;
  4323     02BC  0022               	movlb	2	; select bank2
  4324     02BD  0196               	clrf	22	;volatile
  4325     02BE                     l88:
  4326     02BE  0008               	return
  4327     02BF                     __end_of_OSCILLATOR_Initialize:
  4328                           
  4329                           	psect	intentry
  4330     0004                     __pintentry:	
  4331 ;; *************** function _INTERRUPT_InterruptManager *****************
  4332 ;; Defined at:
  4333 ;;		line 52 in file "mcc_generated_files/interrupt_manager.c"
  4334 ;; Parameters:    Size  Location     Type
  4335 ;;		None
  4336 ;; Auto vars:     Size  Location     Type
  4337 ;;		None
  4338 ;; Return value:  Size  Location     Type
  4339 ;;                  1    wreg      void 
  4340 ;; Registers used:
  4341 ;;		wreg, status,2, status,0, pclath, cstack
  4342 ;; Tracked objects:
  4343 ;;		On entry : 0/0
  4344 ;;		On exit  : 0/0
  4345 ;;		Unchanged: 0/0
  4346 ;; Data sizes:     COMMON   BANK0   BANK1
  4347 ;;      Params:         0       0       0
  4348 ;;      Locals:         0       0       0
  4349 ;;      Temps:          0       0       0
  4350 ;;      Totals:         0       0       0
  4351 ;;Total ram usage:        0 bytes
  4352 ;; Hardware stack levels used: 1
  4353 ;; Hardware stack levels required when called: 3
  4354 ;; This function calls:
  4355 ;;		_TMR1_ISR
  4356 ;; This function is called by:
  4357 ;;		Interrupt level 1
  4358 ;; This function uses a non-reentrant model
  4359 ;;
  4360                           
  4361     0004                     _INTERRUPT_InterruptManager:
  4362                           
  4363                           ;incstack = 0
  4364     0004  147E               	bsf	int$flags,0	;set compiler interrupt flag (level 1)
  4365                           
  4366                           ; Regs used in _INTERRUPT_InterruptManager: [wreg+status,2+status,0+pclath+cstack]
  4367     0005  3180               	pagesel	$
  4368     0006                     i1l1748:
  4369                           
  4370                           ;mcc_generated_files/interrupt_manager.c: 55:     if(INTCONbits.PEIE == 1)
  4371     0006  1F0B               	btfss	11,6	;volatile
  4372     0007  2809               	goto	u39_21
  4373     0008  280A               	goto	u39_20
  4374     0009                     u39_21:
  4375     0009  2817               	goto	i1l173
  4376     000A                     u39_20:
  4377     000A                     i1l1750:
  4378                           
  4379                           ;mcc_generated_files/interrupt_manager.c: 56:     {;mcc_generated_files/interrupt_manage
      +                          r.c: 57:         if(PIE1bits.TMR1IE == 1 && PIR1bits.TMR1IF == 1)
  4380     000A  0021               	movlb	1	; select bank1
  4381     000B  1C11               	btfss	17,0	;volatile
  4382     000C  280E               	goto	u40_21
  4383     000D  280F               	goto	u40_20
  4384     000E                     u40_21:
  4385     000E  2817               	goto	i1l173
  4386     000F                     u40_20:
  4387     000F                     i1l1752:
  4388     000F  0020               	movlb	0	; select bank0
  4389     0010  1C11               	btfss	17,0	;volatile
  4390     0011  2813               	goto	u41_21
  4391     0012  2814               	goto	u41_20
  4392     0013                     u41_21:
  4393     0013  2817               	goto	i1l173
  4394     0014                     u41_20:
  4395     0014                     i1l1754:
  4396                           
  4397                           ;mcc_generated_files/interrupt_manager.c: 58:         {;mcc_generated_files/interrupt_ma
      +                          nager.c: 59:             TMR1_ISR();
  4398     0014  3182  228E  3180   	fcall	_TMR1_ISR
  4399     0017                     i1l173:	
  4400                           ;mcc_generated_files/interrupt_manager.c: 60:         }
  4401                           
  4402     0017  107E               	bcf	int$flags,0	;clear compiler interrupt flag (level 1)
  4403     0018  0009               	retfie
  4404     0019                     __end_of_INTERRUPT_InterruptManager:
  4405                           
  4406                           	psect	text29
  4407     028E                     __ptext29:	
  4408 ;; *************** function _TMR1_ISR *****************
  4409 ;; Defined at:
  4410 ;;		line 157 in file "mcc_generated_files/tmr1.c"
  4411 ;; Parameters:    Size  Location     Type
  4412 ;;		None
  4413 ;; Auto vars:     Size  Location     Type
  4414 ;;		None
  4415 ;; Return value:  Size  Location     Type
  4416 ;;                  1    wreg      void 
  4417 ;; Registers used:
  4418 ;;		wreg, status,2, status,0, pclath, cstack
  4419 ;; Tracked objects:
  4420 ;;		On entry : 0/0
  4421 ;;		On exit  : 0/0
  4422 ;;		Unchanged: 0/0
  4423 ;; Data sizes:     COMMON   BANK0   BANK1
  4424 ;;      Params:         0       0       0
  4425 ;;      Locals:         0       0       0
  4426 ;;      Temps:          0       0       0
  4427 ;;      Totals:         0       0       0
  4428 ;;Total ram usage:        0 bytes
  4429 ;; Hardware stack levels used: 1
  4430 ;; Hardware stack levels required when called: 2
  4431 ;; This function calls:
  4432 ;;		_TMR1_CallBack
  4433 ;;		_TMR1_WriteTimer
  4434 ;; This function is called by:
  4435 ;;		_INTERRUPT_InterruptManager
  4436 ;; This function uses a non-reentrant model
  4437 ;;
  4438                           
  4439     028E                     _TMR1_ISR:	
  4440                           ;psect for function _TMR1_ISR
  4441                           
  4442     028E                     i1l1646:	
  4443                           ;incstack = 0
  4444                           ; Regs used in _TMR1_ISR: [wreg+status,2+status,0+pclath+cstack]
  4445                           
  4446                           
  4447                           ;mcc_generated_files/tmr1.c: 161:     PIR1bits.TMR1IF = 0;
  4448     028E  0020               	movlb	0	; select bank0
  4449     028F  1011               	bcf	17,0	;volatile
  4450     0290                     i1l1648:
  4451                           
  4452                           ;mcc_generated_files/tmr1.c: 162:     TMR1_WriteTimer(timer1ReloadVal);
  4453     0290  0831               	movf	_timer1ReloadVal+1,w	;volatile
  4454     0291  00F1               	movwf	TMR1_WriteTimer@timerVal+1
  4455     0292  0830               	movf	_timer1ReloadVal,w	;volatile
  4456     0293  00F0               	movwf	TMR1_WriteTimer@timerVal
  4457     0294  3182  2251  3182   	fcall	_TMR1_WriteTimer
  4458                           
  4459                           ;mcc_generated_files/tmr1.c: 166:     TMR1_CallBack();
  4460     0297  3182  229B  3182   	fcall	_TMR1_CallBack
  4461     029A                     i1l146:
  4462     029A  0008               	return
  4463     029B                     __end_of_TMR1_ISR:
  4464                           
  4465                           	psect	text30
  4466     0251                     __ptext30:	
  4467 ;; *************** function _TMR1_WriteTimer *****************
  4468 ;; Defined at:
  4469 ;;		line 120 in file "mcc_generated_files/tmr1.c"
  4470 ;; Parameters:    Size  Location     Type
  4471 ;;  timerVal        2    0[COMMON] unsigned short 
  4472 ;; Auto vars:     Size  Location     Type
  4473 ;;		None
  4474 ;; Return value:  Size  Location     Type
  4475 ;;                  1    wreg      void 
  4476 ;; Registers used:
  4477 ;;		wreg, status,2
  4478 ;; Tracked objects:
  4479 ;;		On entry : 0/0
  4480 ;;		On exit  : 0/0
  4481 ;;		Unchanged: 0/0
  4482 ;; Data sizes:     COMMON   BANK0   BANK1
  4483 ;;      Params:         2       0       0
  4484 ;;      Locals:         0       0       0
  4485 ;;      Temps:          0       0       0
  4486 ;;      Totals:         2       0       0
  4487 ;;Total ram usage:        2 bytes
  4488 ;; Hardware stack levels used: 1
  4489 ;; This function calls:
  4490 ;;		Nothing
  4491 ;; This function is called by:
  4492 ;;		_TMR1_ISR
  4493 ;;		_TMR1_Reload
  4494 ;; This function uses a non-reentrant model
  4495 ;;
  4496                           
  4497     0251                     _TMR1_WriteTimer:	
  4498                           ;psect for function _TMR1_WriteTimer
  4499                           
  4500     0251                     i1l1586:	
  4501                           ;incstack = 0
  4502                           ; Regs used in _TMR1_WriteTimer: [wreg+status,2]
  4503                           
  4504                           
  4505                           ;mcc_generated_files/tmr1.c: 120: void TMR1_WriteTimer(uint16_t timerVal);mcc_generated_
      +                          files/tmr1.c: 121: {;mcc_generated_files/tmr1.c: 122:     if (T1CONbits.nT1SYNC == 1)
  4506     0251  0020               	movlb	0	; select bank0
  4507     0252  1D18               	btfss	24,2	;volatile
  4508     0253  2A55               	goto	u22_21
  4509     0254  2A56               	goto	u22_20
  4510     0255                     u22_21:
  4511     0255  2A5D               	goto	i1l1596
  4512     0256                     u22_20:
  4513     0256                     i1l1588:
  4514                           
  4515                           ;mcc_generated_files/tmr1.c: 123:     {;mcc_generated_files/tmr1.c: 125:         T1CONbi
      +                          ts.TMR1ON = 0;
  4516     0256  1018               	bcf	24,0	;volatile
  4517     0257                     i1l1590:
  4518                           
  4519                           ;mcc_generated_files/tmr1.c: 128:         TMR1H = (uint8_t)(timerVal >> 8);
  4520     0257  0871               	movf	TMR1_WriteTimer@timerVal+1,w
  4521     0258  0097               	movwf	23	;volatile
  4522     0259                     i1l1592:
  4523                           
  4524                           ;mcc_generated_files/tmr1.c: 129:         TMR1L = (uint8_t)timerVal;
  4525     0259  0870               	movf	TMR1_WriteTimer@timerVal,w
  4526     025A  0096               	movwf	22	;volatile
  4527     025B                     i1l1594:
  4528                           
  4529                           ;mcc_generated_files/tmr1.c: 132:         T1CONbits.TMR1ON =1;
  4530     025B  1418               	bsf	24,0	;volatile
  4531                           
  4532                           ;mcc_generated_files/tmr1.c: 133:     }
  4533     025C  2A61               	goto	i1l134
  4534     025D                     i1l1596:
  4535                           
  4536                           ;mcc_generated_files/tmr1.c: 135:     {;mcc_generated_files/tmr1.c: 137:         TMR1H =
      +                           (uint8_t)(timerVal >> 8);
  4537     025D  0871               	movf	TMR1_WriteTimer@timerVal+1,w
  4538     025E  0097               	movwf	23	;volatile
  4539     025F                     i1l1598:
  4540                           
  4541                           ;mcc_generated_files/tmr1.c: 138:         TMR1L = (uint8_t)timerVal;
  4542     025F  0870               	movf	TMR1_WriteTimer@timerVal,w
  4543     0260  0096               	movwf	22	;volatile
  4544     0261                     i1l134:
  4545     0261  0008               	return
  4546     0262                     __end_of_TMR1_WriteTimer:
  4547                           
  4548                           	psect	text31
  4549     029B                     __ptext31:	
  4550 ;; *************** function _TMR1_CallBack *****************
  4551 ;; Defined at:
  4552 ;;		line 169 in file "mcc_generated_files/tmr1.c"
  4553 ;; Parameters:    Size  Location     Type
  4554 ;;		None
  4555 ;; Auto vars:     Size  Location     Type
  4556 ;;		None
  4557 ;; Return value:  Size  Location     Type
  4558 ;;                  1    wreg      void 
  4559 ;; Registers used:
  4560 ;;		wreg, status,2, status,0, pclath, cstack
  4561 ;; Tracked objects:
  4562 ;;		On entry : 0/0
  4563 ;;		On exit  : 0/0
  4564 ;;		Unchanged: 0/0
  4565 ;; Data sizes:     COMMON   BANK0   BANK1
  4566 ;;      Params:         0       0       0
  4567 ;;      Locals:         0       0       0
  4568 ;;      Temps:          0       0       0
  4569 ;;      Totals:         0       0       0
  4570 ;;Total ram usage:        0 bytes
  4571 ;; Hardware stack levels used: 1
  4572 ;; Hardware stack levels required when called: 1
  4573 ;; This function calls:
  4574 ;;		Absolute function
  4575 ;;		_TMR1_DefaultInterruptHandler
  4576 ;;		_msTick
  4577 ;; This function is called by:
  4578 ;;		_TMR1_ISR
  4579 ;; This function uses a non-reentrant model
  4580 ;;
  4581                           
  4582     029B                     _TMR1_CallBack:	
  4583                           ;psect for function _TMR1_CallBack
  4584                           
  4585     029B                     i1l1600:	
  4586                           ;incstack = 0
  4587                           ; Regs used in _TMR1_CallBack: [wreg+status,2+status,0+pclath+cstack]
  4588                           
  4589                           
  4590                           ;mcc_generated_files/tmr1.c: 172:     if(TMR1_InterruptHandler)
  4591     029B  0020               	movlb	0	; select bank0
  4592     029C  082E               	movf	_TMR1_InterruptHandler,w
  4593     029D  042F               	iorwf	_TMR1_InterruptHandler+1,w
  4594     029E  1903               	btfsc	3,2
  4595     029F  2AA1               	goto	u23_21
  4596     02A0  2AA2               	goto	u23_20
  4597     02A1                     u23_21:
  4598     02A1  2AA7               	goto	i1l150
  4599     02A2                     u23_20:
  4600     02A2                     i1l1602:
  4601                           
  4602                           ;mcc_generated_files/tmr1.c: 173:     {;mcc_generated_files/tmr1.c: 174:         TMR1_In
      +                          terruptHandler();
  4603     02A2  082F               	movf	_TMR1_InterruptHandler+1,w
  4604     02A3  008A               	movwf	10
  4605     02A4  082E               	movf	_TMR1_InterruptHandler,w
  4606     02A5  000A               	callw
  4607     02A6  3182               	pagesel	$
  4608     02A7                     i1l150:
  4609     02A7  0008               	return
  4610     02A8                     __end_of_TMR1_CallBack:
  4611                           
  4612                           	psect	text32
  4613     02FC                     __ptext32:	
  4614 ;; *************** function _TMR1_DefaultInterruptHandler *****************
  4615 ;; Defined at:
  4616 ;;		line 182 in file "mcc_generated_files/tmr1.c"
  4617 ;; Parameters:    Size  Location     Type
  4618 ;;		None
  4619 ;; Auto vars:     Size  Location     Type
  4620 ;;		None
  4621 ;; Return value:  Size  Location     Type
  4622 ;;                  1    wreg      void 
  4623 ;; Registers used:
  4624 ;;		None
  4625 ;; Tracked objects:
  4626 ;;		On entry : 0/0
  4627 ;;		On exit  : 0/0
  4628 ;;		Unchanged: 0/0
  4629 ;; Data sizes:     COMMON   BANK0   BANK1
  4630 ;;      Params:         0       0       0
  4631 ;;      Locals:         0       0       0
  4632 ;;      Temps:          0       0       0
  4633 ;;      Totals:         0       0       0
  4634 ;;Total ram usage:        0 bytes
  4635 ;; Hardware stack levels used: 1
  4636 ;; This function calls:
  4637 ;;		Nothing
  4638 ;; This function is called by:
  4639 ;;		_TMR1_Initialize
  4640 ;;		_TMR1_CallBack
  4641 ;; This function uses a non-reentrant model
  4642 ;;
  4643                           
  4644     02FC                     _TMR1_DefaultInterruptHandler:	
  4645                           ;psect for function _TMR1_DefaultInterruptHandler
  4646                           
  4647     02FC                     i1l156:	
  4648                           ;incstack = 0
  4649                           ; Regs used in _TMR1_DefaultInterruptHandler: []
  4650                           
  4651     02FC  0008               	return
  4652     02FD                     __end_of_TMR1_DefaultInterruptHandler:
  4653                           
  4654                           	psect	text33
  4655     0280                     __ptext33:	
  4656 ;; *************** function _msTick *****************
  4657 ;; Defined at:
  4658 ;;		line 143 in file "app.c"
  4659 ;; Parameters:    Size  Location     Type
  4660 ;;		None
  4661 ;; Auto vars:     Size  Location     Type
  4662 ;;		None
  4663 ;; Return value:  Size  Location     Type
  4664 ;;                  1    wreg      void 
  4665 ;; Registers used:
  4666 ;;		wreg, status,2, status,0
  4667 ;; Tracked objects:
  4668 ;;		On entry : 0/0
  4669 ;;		On exit  : 0/0
  4670 ;;		Unchanged: 0/0
  4671 ;; Data sizes:     COMMON   BANK0   BANK1
  4672 ;;      Params:         0       0       0
  4673 ;;      Locals:         0       0       0
  4674 ;;      Temps:          1       0       0
  4675 ;;      Totals:         1       0       0
  4676 ;;Total ram usage:        1 bytes
  4677 ;; Hardware stack levels used: 1
  4678 ;; This function calls:
  4679 ;;		Nothing
  4680 ;; This function is called by:
  4681 ;;		_appInit
  4682 ;;		_TMR1_CallBack
  4683 ;; This function uses a non-reentrant model
  4684 ;;
  4685                           
  4686     0280                     _msTick:	
  4687                           ;psect for function _msTick
  4688                           
  4689     0280                     i1l1566:	
  4690                           ;incstack = 0
  4691                           ; Regs used in _msTick: [wreg+status,2+status,0]
  4692                           
  4693                           
  4694                           ;app.c: 144:     btnTicks++;
  4695     0280  3001               	movlw	1
  4696     0281  00F0               	movwf	??_msTick
  4697     0282  0870               	movf	??_msTick,w
  4698     0283  0020               	movlb	0	; select bank0
  4699     0284  07AC               	addwf	_btnTicks,f
  4700     0285                     i1l1568:
  4701                           
  4702                           ;app.c: 145:     timeInState++;
  4703     0285  3001               	movlw	1
  4704     0286  07A6               	addwf	_timeInState,f
  4705     0287  3000               	movlw	0
  4706     0288  3DA7               	addwfc	_timeInState+1,f
  4707     0289  3000               	movlw	0
  4708     028A  3DA8               	addwfc	_timeInState+2,f
  4709     028B  3000               	movlw	0
  4710     028C  3DA9               	addwfc	_timeInState+3,f
  4711     028D                     i1l508:
  4712     028D  0008               	return
  4713     028E                     __end_of_msTick:
  4714     007E                     btemp	set	126	;btemp
  4715     007E                     int$flags	set	126
  4716     007E                     wtemp0	set	126
  4717                           
  4718                           	psect	idloc
  4719                           
  4720                           ;Config register IDLOC0 @ 0x8000
  4721                           ;	unspecified, using default values
  4722     8000                     	org	32768
  4723     8000  3FFF               	dw	16383
  4724                           
  4725                           ;Config register IDLOC1 @ 0x8001
  4726                           ;	unspecified, using default values
  4727     8001                     	org	32769
  4728     8001  3FFF               	dw	16383
  4729                           
  4730                           ;Config register IDLOC2 @ 0x8002
  4731                           ;	unspecified, using default values
  4732     8002                     	org	32770
  4733     8002  3FFF               	dw	16383
  4734                           
  4735                           ;Config register IDLOC3 @ 0x8003
  4736                           ;	unspecified, using default values
  4737     8003                     	org	32771
  4738     8003  3FFF               	dw	16383
  4739                           
  4740                           	psect	config
  4741                           
  4742                           ;Config register CONFIG1 @ 0x8007
  4743                           ;	
  4744                           ;	FOSC = INTOSC, INTOSC oscillator; I/O function on CLKIN pin
  4745                           ;	Watchdog Timer Enable
  4746                           ;	WDTE = OFF, WDT disabled
  4747                           ;	Power-up Timer Enable
  4748                           ;	PWRTE = OFF, PWRT disabled
  4749                           ;	MCLR Pin Function Select
  4750                           ;	MCLRE = ON, MCLR/VPP pin function is MCLR
  4751                           ;	Flash Program Memory Code Protection
  4752                           ;	CP = OFF, Program memory code protection is disabled
  4753                           ;	Brown-out Reset Enable
  4754                           ;	BOREN = ON, Brown-out Reset enabled
  4755                           ;	Clock Out Enable
  4756                           ;	CLKOUTEN = OFF, CLKOUT function is disabled. I/O or oscillator function on the CLKOUT 
      +                          pin
  4757     8007                     	org	32775
  4758     8007  3FE4               	dw	16356
  4759                           
  4760                           ;Config register CONFIG2 @ 0x8008
  4761                           ;	Flash Memory Self-Write Protection
  4762                           ;	WRT = OFF, Write protection off
  4763                           ;	PLL Enable
  4764                           ;	PLLEN = OFF, 4x PLL disabled
  4765                           ;	Stack Overflow/Underflow Reset Enable
  4766                           ;	STVREN = ON, Stack Overflow or Underflow will cause a Reset
  4767                           ;	Brown-out Reset Voltage Selection
  4768                           ;	BORV = LO, Brown-out Reset Voltage (Vbor), low trip point selected.
  4769                           ;	Low Power Brown-out Reset enable bit
  4770                           ;	LPBOREN = OFF, LPBOR is disabled
  4771                           ;	Low-Voltage Programming Enable
  4772                           ;	LVP = OFF, High-voltage on MCLR/VPP must be used for programming
  4773     8008                     	org	32776
  4774     8008  1EFF               	dw	7935

Data Sizes:
    Strings     0
    Constant    0
    Data        0
    BSS         16
    Persistent  36
    Stack       0

Auto Spaces:
    Space          Size  Autos    Used
    COMMON           14     10      12
    BANK0            80      4      22
    BANK1            32      0       0

Pointer List with Targets:

    TMR1_SetInterruptHandler@InterruptHandler	PTR FTN()void  size(2) Largest target is 1
		 -> msTick(), TMR1_DefaultInterruptHandler(), 

    TMR1_InterruptHandler	PTR FTN()void  size(2) Largest target is 1
		 -> msTick(), Absolute function(), TMR1_DefaultInterruptHandler(), 


Critical Paths under _main in COMMON

    _appInit->_TMR1_SetInterruptHandler
    _appHandler->___llmod
    _refreshColor->_PWM1_DutyCycleSet
    _refreshColor->_PWM2_DutyCycleSet
    _refreshColor->_PWM3_DutyCycleSet
    _TMR1_Initialize->_TMR1_SetInterruptHandler

Critical Paths under _INTERRUPT_InterruptManager in COMMON

    _TMR1_ISR->_TMR1_WriteTimer
    _TMR1_CallBack->_msTick

Critical Paths under _main in BANK0

    _main->_appHandler
    _appHandler->___llmod

Critical Paths under _INTERRUPT_InterruptManager in BANK0

    None.

Critical Paths under _main in BANK1

    None.

Critical Paths under _INTERRUPT_InterruptManager in BANK1

    None.

Call Graph Tables:

 ---------------------------------------------------------------------------------
 (Depth) Function   	        Calls       Base Space   Used Autos Params    Refs
 ---------------------------------------------------------------------------------
 (0) _main                                                 0     0      0    2934
                  _SYSTEM_Initialize
                    _TMR2_StartTimer
                         _appHandler
                            _appInit
 ---------------------------------------------------------------------------------
 (1) _appInit                                              0     0      0     174
           _TMR1_SetInterruptHandler
 ---------------------------------------------------------------------------------
 (1) _appHandler                                           2     2      0    2586
                                              2 BANK0      2     2      0
                            ___llmod
                       _blinkHandler
                          _initBlink
                       _refreshColor
                          _setColors
 ---------------------------------------------------------------------------------
 (2) _setColors                                            6     0      6    1662
                                              2 COMMON     6     0      6
 ---------------------------------------------------------------------------------
 (2) _refreshColor                                         0     0      0     360
                  _PWM1_DutyCycleSet
                         _PWM1_Start
                          _PWM1_Stop
                  _PWM2_DutyCycleSet
                         _PWM2_Start
                          _PWM2_Stop
                  _PWM3_DutyCycleSet
                         _PWM3_Start
                          _PWM3_Stop
 ---------------------------------------------------------------------------------
 (3) _PWM3_Stop                                            0     0      0       0
 ---------------------------------------------------------------------------------
 (3) _PWM3_Start                                           0     0      0       0
 ---------------------------------------------------------------------------------
 (3) _PWM3_DutyCycleSet                                    2     0      2     120
                                              2 COMMON     2     0      2
 ---------------------------------------------------------------------------------
 (3) _PWM2_Stop                                            0     0      0       0
 ---------------------------------------------------------------------------------
 (3) _PWM2_Start                                           0     0      0       0
 ---------------------------------------------------------------------------------
 (3) _PWM2_DutyCycleSet                                    2     0      2     120
                                              2 COMMON     2     0      2
 ---------------------------------------------------------------------------------
 (3) _PWM1_Stop                                            0     0      0       0
 ---------------------------------------------------------------------------------
 (3) _PWM1_Start                                           0     0      0       0
 ---------------------------------------------------------------------------------
 (3) _PWM1_DutyCycleSet                                    2     0      2     120
                                              2 COMMON     2     0      2
 ---------------------------------------------------------------------------------
 (2) _initBlink                                            2     0      2      76
                                              2 COMMON     2     0      2
 ---------------------------------------------------------------------------------
 (2) _blinkHandler                                         2     0      2      76
                                              2 COMMON     2     0      2
 ---------------------------------------------------------------------------------
 (2) ___llmod                                             10     2      8     412
                                              2 COMMON     8     0      8
                                              0 BANK0      2     2      0
 ---------------------------------------------------------------------------------
 (1) _TMR2_StartTimer                                      0     0      0       0
 ---------------------------------------------------------------------------------
 (1) _SYSTEM_Initialize                                    0     0      0     174
              _OSCILLATOR_Initialize
             _PIN_MANAGER_Initialize
                    _PWM1_Initialize
                    _PWM2_Initialize
                    _PWM3_Initialize
                    _TMR1_Initialize
                    _TMR2_Initialize
                     _WDT_Initialize
 ---------------------------------------------------------------------------------
 (2) _WDT_Initialize                                       0     0      0       0
 ---------------------------------------------------------------------------------
 (2) _TMR2_Initialize                                      0     0      0       0
 ---------------------------------------------------------------------------------
 (2) _TMR1_Initialize                                      0     0      0     174
           _TMR1_SetInterruptHandler
 ---------------------------------------------------------------------------------
 (2) _TMR1_SetInterruptHandler                             2     0      2     174
                                              2 COMMON     2     0      2
 ---------------------------------------------------------------------------------
 (2) _PWM3_Initialize                                      0     0      0       0
 ---------------------------------------------------------------------------------
 (2) _PWM2_Initialize                                      0     0      0       0
 ---------------------------------------------------------------------------------
 (2) _PWM1_Initialize                                      0     0      0       0
 ---------------------------------------------------------------------------------
 (2) _PIN_MANAGER_Initialize                               0     0      0       0
 ---------------------------------------------------------------------------------
 (2) _OSCILLATOR_Initialize                                0     0      0       0
 ---------------------------------------------------------------------------------
 Estimated maximum stack depth 3
 ---------------------------------------------------------------------------------
 (Depth) Function   	        Calls       Base Space   Used Autos Params    Refs
 ---------------------------------------------------------------------------------
 (4) _INTERRUPT_InterruptManager                           0     0      0     240
                           _TMR1_ISR
 ---------------------------------------------------------------------------------
 (5) _TMR1_ISR                                             0     0      0     240
                      _TMR1_CallBack
                    _TMR1_WriteTimer
 ---------------------------------------------------------------------------------
 (6) _TMR1_WriteTimer                                      2     0      2     240
                                              0 COMMON     2     0      2
 ---------------------------------------------------------------------------------
 (6) _TMR1_CallBack                                        0     0      0       0
                   Absolute function *
       _TMR1_DefaultInterruptHandler *
                             _msTick *
 ---------------------------------------------------------------------------------
 (7) _msTick                                               1     1      0       0
                                              0 COMMON     1     1      0
 ---------------------------------------------------------------------------------
 (7) _TMR1_DefaultInterruptHandler                         0     0      0       0
 ---------------------------------------------------------------------------------
 (7) Absolute function(Fake)                               0     0      0       0
 ---------------------------------------------------------------------------------
 Estimated maximum stack depth 7
 ---------------------------------------------------------------------------------

 Call Graph Graphs:

 _main (ROOT)
   _SYSTEM_Initialize
     _OSCILLATOR_Initialize
     _PIN_MANAGER_Initialize
     _PWM1_Initialize
     _PWM2_Initialize
     _PWM3_Initialize
     _TMR1_Initialize
       _TMR1_SetInterruptHandler
     _TMR2_Initialize
     _WDT_Initialize
   _TMR2_StartTimer
   _appHandler
     ___llmod
     _blinkHandler
     _initBlink
     _refreshColor
       _PWM1_DutyCycleSet
       _PWM1_Start
       _PWM1_Stop
       _PWM2_DutyCycleSet
       _PWM2_Start
       _PWM2_Stop
       _PWM3_DutyCycleSet
       _PWM3_Start
       _PWM3_Stop
     _setColors
   _appInit
     _TMR1_SetInterruptHandler

 _INTERRUPT_InterruptManager (ROOT)
   _TMR1_ISR
     _TMR1_CallBack
       Absolute function(Fake) *
       _TMR1_DefaultInterruptHandler *
       _msTick *
     _TMR1_WriteTimer

 Address spaces:
Name               Size   Autos  Total    Cost      Usage
BIGRAM              70      0       0       0        0.0%
NULL                 0      0       0       0        0.0%
CODE                 0      0       0       0        0.0%
BITCOMMON            E      0       0       1        0.0%
BITSFR0              0      0       0       1        0.0%
SFR0                 0      0       0       1        0.0%
COMMON               E      A       C       2       85.7%
BITSFR1              0      0       0       2        0.0%
SFR1                 0      0       0       2        0.0%
BITSFR2              0      0       0       3        0.0%
SFR2                 0      0       0       3        0.0%
STACK                0      0       0       3        0.0%
BITSFR3              0      0       0       4        0.0%
SFR3                 0      0       0       4        0.0%
ABS                  0      0      22       4        0.0%
BITBANK0            50      0       0       5        0.0%
BITSFR4              0      0       0       5        0.0%
SFR4                 0      0       0       5        0.0%
BANK0               50      4      16       6       27.5%
BITSFR5              0      0       0       6        0.0%
SFR5                 0      0       0       6        0.0%
BITBANK1            20      0       0       7        0.0%
BITSFR6              0      0       0       7        0.0%
SFR6                 0      0       0       7        0.0%
BANK1               20      0       0       8        0.0%
BITSFR7              0      0       0       8        0.0%
SFR7                 0      0       0       8        0.0%
BITSFR8              0      0       0       9        0.0%
SFR8                 0      0       0       9        0.0%
DATA                 0      0      22       9        0.0%
BITSFR9              0      0       0      10        0.0%
SFR9                 0      0       0      10        0.0%
BITSFR10             0      0       0      11        0.0%
SFR10                0      0       0      11        0.0%
BITSFR11             0      0       0      12        0.0%
SFR11                0      0       0      12        0.0%
BITSFR12             0      0       0      13        0.0%
SFR12                0      0       0      13        0.0%
BITSFR13             0      0       0      14        0.0%
SFR13                0      0       0      14        0.0%
BITSFR14             0      0       0      15        0.0%
SFR14                0      0       0      15        0.0%
BITSFR15             0      0       0      16        0.0%
SFR15                0      0       0      16        0.0%
BITSFR16             0      0       0      17        0.0%
SFR16                0      0       0      17        0.0%
BITSFR17             0      0       0      18        0.0%
SFR17                0      0       0      18        0.0%
BITSFR18             0      0       0      19        0.0%
SFR18                0      0       0      19        0.0%
BITSFR19             0      0       0      20        0.0%
SFR19                0      0       0      20        0.0%
BITSFR20             0      0       0      21        0.0%
SFR20                0      0       0      21        0.0%
BITSFR21             0      0       0      22        0.0%
SFR21                0      0       0      22        0.0%
BITSFR22             0      0       0      23        0.0%
SFR22                0      0       0      23        0.0%
BITSFR23             0      0       0      24        0.0%
SFR23                0      0       0      24        0.0%
BITSFR24             0      0       0      25        0.0%
SFR24                0      0       0      25        0.0%
BITSFR25             0      0       0      26        0.0%
SFR25                0      0       0      26        0.0%
BITSFR26             0      0       0      27        0.0%
SFR26                0      0       0      27        0.0%
BITSFR27             0      0       0      28        0.0%
SFR27                0      0       0      28        0.0%
BITSFR28             0      0       0      29        0.0%
SFR28                0      0       0      29        0.0%
BITSFR29             0      0       0      30        0.0%
SFR29                0      0       0      30        0.0%
BITSFR30             0      0       0      31        0.0%
SFR30                0      0       0      31        0.0%
BITSFR31             0      0       0      32        0.0%
SFR31                0      0       0      32        0.0%


Microchip Technology PIC Macro Assembler V2.40 build 20220703182018 
Symbol Table                                                                                   Wed Oct 12 18:25:34 2022

                     ??_PWM3_DutyCycleSet 0074                                        l23 01D8  
                                      l42 02FA                                        l39 02B7  
                                      l91 02E5                                        l85 01F1  
                                      l88 02BE                                       l120 0222  
                                     l220 02F4                                       l300 02E8  
                                     l214 020A                                       l232 02D6  
                                     l312 02CA                                       l153 02DC  
                                     l217 02F7                                       l511 02FB  
                                     l520 027F                                       l505 0148  
                                     l514 02E1                                       l380 02EE  
                                     l517 01BE                                       l374 0250  
                                     l294 0239                                       l392 02D0  
                                     l377 02F1                                       l297 02EB  
                                     l478 02AF                                       l818 0193  
                                     u420 0151                                       u500 0072  
                                     u421 0150                                       u501 0071  
                                     u510 0081                                       _PR2 001B  
                                     u511 0080                                       u440 0164  
                                     u520 00A3                                       u441 0163  
                                     u521 00A2                                       u450 0176  
                                     u530 00E1                                       u451 0175  
                                     u435 0156                                       u531 00E0  
                                     u540 00E7                                       u541 00E6  
                                     u470 018B                                       u550 0118  
                                     u471 018A                                       u455 0172  
                                     u551 0117                                       u560 0126  
                                     u480 002E                                       u465 017F  
                                     u561 0125                                       u481 002D  
                                     u490 0061                                       u491 0060  
                         _timer1ReloadVal 0030                                       _led 0020  
                         _TMR2_Initialize 02B0                                       wreg 0009  
               __end_of_PWM3_DutyCycleSet 02CB                                      l1100 02E2  
                                    l1110 01F9                                      l1102 01F2  
                                    l1120 0201                                      l1112 01FA  
                                    l1104 01F5                                      l1122 0203  
                                    l1114 01FB                                      l1106 01F7  
                                    l1130 023D                                      l1124 0206  
                                    l1116 01FD                                      l1108 01F8  
                                    l1140 0243                                      l1132 023F  
                                    l1126 0207                                      l1118 01FF  
                                    l1150 024C                                      l1142 0244  
                                    l1134 0240                                      l1080 01CA  
                                    l1152 024D                                      l1144 0245  
                                    l1136 0241                                      l1128 023A  
                                    l1160 0229                                      l1082 01CB  
                                    l1146 0247                                      l1138 0242  
                                    l1170 022E                                      l1162 022A  
                                    l1154 0223                                      l1090 02B4  
                                    l1084 01CD                                      l1076 01BF  
                                    l1148 0249                                      l1172 0230  
                                    l1164 022B                                      l1156 0226  
                                    l1092 02B5                                      l1094 02B8  
                                    l1078 01C8                                      l1174 0232  
                                    l1166 022C                                      l1158 0228  
                                    l1086 02B0                                      l1254 02F8  
                                    l1096 02BB                                      l1176 0235  
                                    l1168 022D                                      l1088 02B3  
                                    l1098 02BC                                      l1178 0236  
                                    l1610 019F                                      l1540 02D7  
                                    l1620 02DD                                      l1612 01A2  
                                    l1604 0272                                      l1542 02F5  
                                    l1550 02E9                                      l1614 01A5  
                                    l1606 0194                                      l1544 02F2  
                                    l1560 02EC                                      l1552 02E6  
                                    l1616 01B3                                      l1608 0197  
                                    l1570 020B                                      l1810 0151  
                                    l1546 02D1                                      l1562 02CB  
                                    l1554 02C5                                      l1618 01BB  
                                    l1650 02A8                                      l1580 0216  
                                    l1572 020D                                      l1644 01D9  
                                    l1820 017E                                      l1812 0155  
                                    l1548 02D4                                      l1564 02CE  
                                    l1556 02C8                                      l1582 0218  
                                    l1574 020F                                      l1822 0185  
                                    l1814 0160                                      l1558 02EF  
                                    l1830 002E                                      l1584 021F  
                                    l1576 0211                                      l1816 0164  
                                    l1824 018B                                      l1808 0149  
                                    l1840 0054                                      l1832 002F  
                                    l1912 0129                                      l1578 0212  
                                    l1818 0176                                      l1906 0127  
                                    l1842 005C                                      l1834 0036  
                                    l1930 026C                                      l1922 0262  
                                    l1860 0095                                      l1844 0061  
                                    l1836 0038                                      l1828 0027  
                                    l1932 026D                                      l1924 0265  
                                    l1870 00C8                                      l1862 009E  
                                    l1854 0073                                      l1846 006C  
                                    l1838 0047                                      l1926 0268  
                                    l1880 00F7                                      l1872 00CA  
                                    l1864 00A3                                      l1856 0081  
                                    l1928 026B                                      l1890 010D  
                                    l1874 00D4                                      l1866 00BB  
                                    l1858 0093                                      l1892 0118  
                                    l1884 00FA                                      l1876 00E1  
                                    l1868 00BE                                      l1974 0131  
                                    l1886 010A                                      l1878 00E7  
                                    l1898 011B                   __end_of_PWM1_Initialize 020B  
                                    _LATA 010C                                      _TMR2 001A  
                                    _WPUA 020C                                      _main 0262  
                                    fsr0h 0005                                      indf0 0000  
                                    fsr0l 0004                                      btemp 007E  
                                    start 0019                ??_TMR1_SetInterruptHandler 0074  
                 __end_of_PWM2_Initialize 0251             __end_of_OSCILLATOR_Initialize 02BF  
                                   ?_main 0070                                     _T1CON 0018  
                         __end_of___llmod 0194                                     _T2CON 001C  
                                   i1l150 02A7                                     i1l134 0261  
                                   i1l146 029A                                     i1l156 02FC  
                                   i1l173 0017                                     i1l508 028D  
                                   u22_20 0256                                     u22_21 0255  
                                   u23_20 02A2                                     u23_21 02A1  
                                   u40_20 000F                                     u40_21 000E  
                                   u41_20 0014                                     u41_21 0013  
                                   _TMR1H 0017                                     _TMR1L 0016  
                                   u39_20 000A                                     u39_21 0009  
                                   _TRISA 008C                           __end_of_appInit 02B0  
                        __end_of_TMR1_ISR 029B                               ?_PWM1_Start 0070  
                             ?_PWM2_Start 0070                               ?_PWM3_Start 0070  
                          _WDT_Initialize 02E2                      __end_of_blinkHandler 02E2  
                 __end_of_PWM3_Initialize 023A                   __end_of_TMR1_Initialize 0223  
                                   pclath 000A                                     status 0003  
                                   wtemp0 007E                           _TMR2_StartTimer 02F8  
                         _TMR1_WriteTimer 0251           PWM3_DutyCycleSet@dutyCycleCount 0072  
                         __initialization 001A                              __end_of_main 0272  
                 __end_of_TMR2_Initialize 02B8               ?_INTERRUPT_InterruptManager 0070  
                                  ??_main 007A                   blinkHandler@numOfBlinks 0072  
                  __end_of_WDT_Initialize 02E6                          ___llmod@dividend 0076  
                                  _APFCON 011D                                    _ANSELA 018C  
                                  _BORCON 0116                                    _T1GCON 0019  
                 TMR1_WriteTimer@timerVal 0070                          ?_PWM1_Initialize 0070  
                                  i1l1600 029B                                    _ODCONA 028C  
                                  i1l1602 02A2                                    i1l1566 0280  
                                  i1l1590 0257                                    i1l1646 028E  
                                  i1l1750 000A                                    i1l1568 0285  
                                  i1l1592 0259                                    i1l1648 0290  
                                  i1l1752 000F                                    i1l1594 025B  
                                  i1l1586 0251                                    i1l1754 0014  
                                  i1l1588 0256                                    i1l1596 025D  
                                  i1l1748 0006                                    i1l1598 025F  
                                  _INLVLA 038C                                    _OSCCON 0099  
                                  _WDTCON 0097                      initBlink@numOfBlinks 0072  
    __end_of_TMR1_DefaultInterruptHandler 02FD              _TMR1_DefaultInterruptHandler 02FC  
         PWM1_DutyCycleSet@dutyCycleCount 0072                         __end_of_PWM1_Stop 02F5  
                       __end_of_PWM2_Stop 02EF                         __end_of_PWM3_Stop 02E9  
                               ??___llmod 0032                                    _msTick 0280  
                        ?_PWM2_Initialize 0070                                 ??_appInit 0074  
                         ?_WDT_Initialize 0070                   __end_of_TMR2_StartTimer 02FB  
TMR1_SetInterruptHandler@InterruptHandler 0072                   __end_of_TMR1_WriteTimer 0262  
                   __end_of_TMR1_CallBack 02A8                          ?_TMR1_Initialize 0070  
                        ?_PWM3_Initialize 0070                         _SYSTEM_Initialize 01D9  
                 __end_of__initialization 0024                        ?_SYSTEM_Initialize 0070  
                          __pcstackCOMMON 0070                       ??_SYSTEM_Initialize 0074  
                               ?_TMR1_ISR 0070             ?_TMR1_DefaultInterruptHandler 0070  
                        ?_TMR2_Initialize 0070                            _OPTION_REGbits 0095  
       appHandler@requestedNumberOfBlinks 002A                 __end_of_SYSTEM_Initialize 01F2  
                              __pbssBANK0 0020                             ?_refreshColor 0070  
                              _appHandler 0027                                __pmaintext 0262  
                              ??_TMR1_ISR 0072                                __pintentry 0004  
                            _blinkHandler 02DD                                   ?_msTick 0070  
                                 _PWM1DCH 0D94                              ??_PWM1_Start 0072  
                                 _PWM1DCL 0D93                                   _PWM2DCH 0DA4  
                                 _PWM2DCL 0DA3                                   _OSCTUNE 0098  
                                 _PWM3DCH 0DB4                                   _PWM3DCL 0DB3  
                                 _PWM1CON 0D9B                                   _PWM2CON 0DAB  
                                 _PWM3CON 0DBB                                   _PWM1OFH 0D98  
                                 _PWM1OFL 0D97                                   _PWM1PHH 0D92  
                                 _PWM2OFH 0DA8                                   _PWM1PHL 0D91  
                                 _PWM2OFL 0DA7                              ??_PWM2_Start 0072  
                                 _PWM3OFH 0DB8                                   _PWM2PHH 0DA2  
                                 _PWM3OFL 0DB7                                   _PWM2PHL 0DA1  
                                 _PWM3PHH 0DB2                                   _PWM1PRH 0D96  
                                 _PWM3PHL 0DB1                                   _PWM1PRL 0D95  
                                 _PWM2PRH 0DA6                                   _PWM2PRL 0DA5  
                                 _PWM3PRH 0DB6                                   _PWM3PRL 0DB5  
                                 _SLRCONA 030C                              ??_PWM3_Start 0072  
                        ?_TMR2_StartTimer 0070                          ?_TMR1_WriteTimer 0070  
                          ??_refreshColor 0074                                   ___llmod 0149  
                      __end_of_PWM1_Start 02F8                        __end_of_PWM2_Start 02F2  
                      __end_of_PWM3_Start 02EC                                   _appInit 02A8  
                                 __ptext1 02A8                                   __ptext2 0027  
                                 __ptext3 0272                                   __ptext4 0194  
                                 __ptext5 02E6                                   __ptext6 02E9  
                                 __ptext7 02C5                                   __ptext8 02EC  
                                 __ptext9 02EF                         __end_of_initBlink 02FC  
          ??_TMR1_DefaultInterruptHandler 0070                                 _T1CONbits 0018  
                   _OSCILLATOR_Initialize 02B8                                 _T2CONbits 001C  
                ??_PIN_MANAGER_Initialize 0072                 ?_TMR1_SetInterruptHandler 0072  
                                 clrloop0 02C0                         __end_of_setColors 0280  
                    end_of_initialization 0024                               ?_appHandler 0070  
                               _PWM1LDCON 0D9F                                 _PWM2LDCON 0DAF  
                               _PWM1OFCON 0DA0                                 _PWM3LDCON 0DBF  
                               _PWM2OFCON 0DB0                                 _PWM3OFCON 0DC0  
                        ??_WDT_Initialize 0072                                 _PWM1_Stop 02F2  
                               _PORTAbits 000C                                 _PWM2_Stop 02EC  
                               _PWM3_Stop 02E6                      __end_of_refreshColor 01BF  
                              ?_PWM1_Stop 0070                                ?_PWM2_Stop 0070  
                              ?_PWM3_Stop 0070                    ?_OSCILLATOR_Initialize 0070  
                          __end_of_msTick 028E                       start_initialization 001A  
                           _PWM1LDCONbits 0D9F                             _PWM2LDCONbits 0DAF  
                         ___llmod@divisor 0072                             _PWM3LDCONbits 0DBF  
                         ___llmod@counter 0033                                  ??_msTick 0070  
                             __pbssCOMMON 007A                                 ___latbits 0000  
                           __pcstackBANK0 0032                              _currentState 007B  
                               __pnvBANK0 002E                    _PIN_MANAGER_Initialize 01BF  
         PWM2_DutyCycleSet@dutyCycleCount 0072                                setColors@b 0076  
                              setColors@g 0074                                setColors@r 0072  
        __end_of_TMR1_SetInterruptHandler 02DD                                  ?___llmod 0072  
                                ?_appInit 0070                         ??_PWM1_Initialize 0072  
            ??_INTERRUPT_InterruptManager 0072                               ??_PWM1_Stop 0072  
                             ??_PWM2_Stop 0072                               ??_PWM3_Stop 0072  
                               _initBlink 02FB                         _PWM1_DutyCycleSet 02D1  
                           _TMR1_CallBack 029B                         ??_PWM2_Initialize 0072  
                      ?_PWM1_DutyCycleSet 0072                                 _setColors 0272  
                            ??_appHandler 0034                                 clear_ram0 02BF  
                                _PIE1bits 0091                                  _PIR1bits 0011  
                     ??_PWM1_DutyCycleSet 0074                                  _PWM1INTE 0D9C  
                                _PWM1INTF 0D9D                                  _PWM2INTE 0DAC  
                                _PWM2INTF 0DAD                                  _PWM3INTE 0DBC  
                                _PWM3INTF 0DBD                                  _PWM1TMRH 0D9A  
                                _PWM1TMRL 0D99                                  _PWM2TMRH 0DAA  
                                _PWM2TMRL 0DA9                                  _PWM3TMRH 0DBA  
                                _PWM3TMRL 0DB9                                  _TMR1_ISR 028E  
                       ??_TMR1_Initialize 0074                         ??_PWM3_Initialize 0072  
                                _WPUAbits 020C                        __end_of_appHandler 0149  
                              ?_initBlink 0072                 __end_of_PWM1_DutyCycleSet 02D7  
                       _currentBlinkState 002D                            ?_TMR1_CallBack 0070  
                            _refreshColor 0194                         ??_TMR2_Initialize 0072  
                              ?_setColors 0072                              _PWM1INTFbits 0D9D  
                            _PWM2INTFbits 0DAD                              _PWM3INTFbits 0DBD  
                 ??_OSCILLATOR_Initialize 0072                  _TMR1_SetInterruptHandler 02D7  
                   _TMR1_InterruptHandler 002E                                  _isCaught 002B  
                                __ptext10 02CB                                  __ptext11 02F2  
                                __ptext20 02B0                                  __ptext12 02F5  
                                __ptext21 020B                                  __ptext13 02D1  
                              _T1GCONbits 0019                                  __ptext30 0251  
                                __ptext22 02D7                                  __ptext14 02FB  
                                __ptext31 029B                                  __ptext23 0223  
                                __ptext15 02DD                                  __ptext32 02FC  
                                __ptext24 023A                                  __ptext16 0149  
                                __ptext33 0280                                  __ptext25 01F2  
                                __ptext17 02F8                                  __ptext26 01BF  
                                __ptext18 01D9                                  __ptext27 02B8  
                                __ptext19 02E2                                  __ptext29 028E  
                                _btnTicks 002C                         _PWM2_DutyCycleSet 02CB  
                      ?_PWM2_DutyCycleSet 0072                       ??_PWM2_DutyCycleSet 0074  
                                int$flags 007E                             ?_blinkHandler 0072  
                       ??_TMR2_StartTimer 0072        __end_of_INTERRUPT_InterruptManager 0019  
              _INTERRUPT_InterruptManager 0004                         ??_TMR1_WriteTimer 0072  
                              _INTCONbits 000B                               _PWM1CONbits 0D9B  
                             ??_initBlink 0074                               _PWM2CONbits 0DAB  
                             _PWM3CONbits 0DBB                 __end_of_PWM2_DutyCycleSet 02D1  
                         ??_TMR1_CallBack 0071                                  intlevel1 0000  
                appHandler@debounceBuffer 007A                   ?_PIN_MANAGER_Initialize 0070  
                             ??_setColors 0078                           _PWM1_Initialize 01F2  
                             _timeInState 0026                            ??_blinkHandler 0074  
                              _PWM1CLKCON 0D9E                                _PWM2CLKCON 0DAE  
                              _PWM3CLKCON 0DBE                           _PWM2_Initialize 023A  
                              _PWM1_Start 02F5                                _PWM2_Start 02EF  
                              _PWM3_Start 02E9            __end_of_PIN_MANAGER_Initialize 01D9  
                       _PWM3_DutyCycleSet 02C5                        ?_PWM3_DutyCycleSet 0072  
                         _TMR1_Initialize 020B                           _PWM3_Initialize 0223  
