

Microchip MPLAB XC8 Assembler V2.40 build 20220703182018 
                                                                                               Wed Sep 07 14:13:02 2022

Microchip MPLAB XC8 C Compiler v2.40 (Free license) build 20220703182018 Og1 
     1                           	processor	12LF1571
     2                           	pagewidth 120
     3                           	opt	flic
     4                           	psect	idataCOMMON,global,class=CODE,delta=2,noexec
     5                           	psect	nvCOMMON,global,class=COMMON,space=1,delta=1,noexec
     6                           	psect	nvBANK0,global,class=BANK0,space=1,delta=1,noexec
     7                           	psect	cinit,global,class=CODE,merge=1,delta=2
     8                           	psect	bssCOMMON,global,class=COMMON,space=1,delta=1,noexec
     9                           	psect	dataCOMMON,global,class=COMMON,space=1,delta=1,noexec
    10                           	psect	bssBANK0,global,class=BANK0,space=1,delta=1,noexec
    11                           	psect	cstackCOMMON,global,class=COMMON,space=1,delta=1,noexec
    12                           	psect	cstackBANK0,global,class=BANK0,space=1,delta=1,noexec
    13                           	psect	maintext,global,class=CODE,merge=1,split=1,delta=2
    14                           	psect	text1,local,class=CODE,merge=1,delta=2
    15                           	psect	text2,local,class=CODE,merge=1,delta=2
    16                           	psect	text3,local,class=CODE,merge=1,delta=2
    17                           	psect	text4,local,class=CODE,merge=1,delta=2
    18                           	psect	text5,local,class=CODE,merge=1,delta=2
    19                           	psect	text6,local,class=CODE,merge=1,delta=2
    20                           	psect	text7,local,class=CODE,merge=1,delta=2
    21                           	psect	text8,local,class=CODE,merge=1,delta=2
    22                           	psect	text9,local,class=CODE,merge=1,delta=2
    23                           	psect	text10,local,class=CODE,merge=1,delta=2
    24                           	psect	text11,local,class=CODE,merge=1,delta=2
    25                           	psect	text12,local,class=CODE,merge=1,delta=2
    26                           	psect	text13,local,class=CODE,merge=1,delta=2
    27                           	psect	intentry,global,class=CODE,delta=2
    28                           	psect	text15,local,class=CODE,merge=1,delta=2
    29                           	psect	text16,local,class=CODE,merge=1,delta=2
    30                           	psect	text17,local,class=CODE,merge=1,delta=2
    31                           	psect	text18,local,class=CODE,merge=1,delta=2
    32                           	psect	text19,local,class=CODE,merge=1,delta=2
    33                           	psect	idloc,global,abs,ovrld,class=IDLOC,space=5,delta=2,noexec
    34                           	psect	config,global,abs,ovrld,class=CONFIG,space=4,delta=2,noexec
    35                           	dabs	1,0x7E,2
    36     0000                     
    37                           ; Version 2.40
    38                           ; Generated 17/11/2021 GMT
    39                           ; 
    40                           ; Copyright © 2021, Microchip Technology Inc. and its subsidiaries ("Microchip")
    41                           ; All rights reserved.
    42                           ; 
    43                           ; This software is developed by Microchip Technology Inc. and its subsidiaries ("Microch
      +                          ip").
    44                           ; 
    45                           ; Redistribution and use in source and binary forms, with or without modification, are
    46                           ; permitted provided that the following conditions are met:
    47                           ; 
    48                           ;     1. Redistributions of source code must retain the above copyright notice, this lis
      +                          t of
    49                           ;        conditions and the following disclaimer.
    50                           ; 
    51                           ;     2. Redistributions in binary form must reproduce the above copyright notice, this 
      +                          list
    52                           ;        of conditions and the following disclaimer in the documentation and/or other
    53                           ;        materials provided with the distribution. Publication is not required when
    54                           ;        this file is used in an embedded application.
    55                           ; 
    56                           ;     3. Microchip's name may not be used to endorse or promote products derived from th
      +                          is
    57                           ;        software without specific prior written permission.
    58                           ; 
    59                           ; THIS SOFTWARE IS PROVIDED BY MICROCHIP "AS IS" AND ANY EXPRESS OR IMPLIED WARRANTIES,
    60                           ; INCLUDING, BUT NOT LIMITED TO, THE IMPLIED WARRANTIES OF MERCHANTABILITY AND FITNESS F
      +                          OR
    61                           ; PURPOSE ARE DISCLAIMED.  IN NO EVENT SHALL MICROCHIP BE LIABLE FOR ANY DIRECT, INDIREC
      +                          T,
    62                           ; INCIDENTAL, SPECIAL, EXEMPLARY, OR CONSEQUENTIAL DAMAGES (INCLUDING BUT NOT LIMITED TO
    63                           ; PROCUREMENT OF SUBSTITUTE GOODS OR SERVICES; LOSS OF USE, DATA OR PROFITS; OR BUSINESS
    64                           ; INTERRUPTION) HOWSOEVER CAUSED AND ON ANY THEORY OF LIABILITY, WHETHER IN CONTRACT, ST
      +                          RICT
    65                           ; LIABILITY, OR TORT (INCLUDING NEGLIGENCE OR OTHERWISE) ARISING IN ANY WAY OUT OF THE U
      +                          SE OF
    66                           ; THIS SOFTWARE, EVEN IF ADVISED OF THE POSSIBILITY OF SUCH DAMAGE.
    67                           ; 
    68                           ; 
    69                           ; Code-generator required, PIC12LF1571 Definitions
    70                           ; 
    71                           ; SFR Addresses
    72     0000                     	;# 
    73     0001                     	;# 
    74     0002                     	;# 
    75     0003                     	;# 
    76     0004                     	;# 
    77     0005                     	;# 
    78     0006                     	;# 
    79     0007                     	;# 
    80     0008                     	;# 
    81     0009                     	;# 
    82     000A                     	;# 
    83     000B                     	;# 
    84     000C                     	;# 
    85     0011                     	;# 
    86     0012                     	;# 
    87     0013                     	;# 
    88     0015                     	;# 
    89     0016                     	;# 
    90     0016                     	;# 
    91     0017                     	;# 
    92     0018                     	;# 
    93     0019                     	;# 
    94     001A                     	;# 
    95     001B                     	;# 
    96     001C                     	;# 
    97     008C                     	;# 
    98     0091                     	;# 
    99     0092                     	;# 
   100     0093                     	;# 
   101     0095                     	;# 
   102     0096                     	;# 
   103     0097                     	;# 
   104     0098                     	;# 
   105     0099                     	;# 
   106     009A                     	;# 
   107     009B                     	;# 
   108     009B                     	;# 
   109     009C                     	;# 
   110     009D                     	;# 
   111     009E                     	;# 
   112     009F                     	;# 
   113     010C                     	;# 
   114     0111                     	;# 
   115     0112                     	;# 
   116     0115                     	;# 
   117     0116                     	;# 
   118     0117                     	;# 
   119     0118                     	;# 
   120     0119                     	;# 
   121     011D                     	;# 
   122     011D                     	;# 
   123     018C                     	;# 
   124     0191                     	;# 
   125     0191                     	;# 
   126     0192                     	;# 
   127     0193                     	;# 
   128     0193                     	;# 
   129     0194                     	;# 
   130     0195                     	;# 
   131     0196                     	;# 
   132     020C                     	;# 
   133     028C                     	;# 
   134     030C                     	;# 
   135     038C                     	;# 
   136     0391                     	;# 
   137     0392                     	;# 
   138     0393                     	;# 
   139     0691                     	;# 
   140     0692                     	;# 
   141     0693                     	;# 
   142     0694                     	;# 
   143     0695                     	;# 
   144     0D8E                     	;# 
   145     0D8F                     	;# 
   146     0D90                     	;# 
   147     0D91                     	;# 
   148     0D91                     	;# 
   149     0D92                     	;# 
   150     0D93                     	;# 
   151     0D93                     	;# 
   152     0D94                     	;# 
   153     0D95                     	;# 
   154     0D95                     	;# 
   155     0D96                     	;# 
   156     0D97                     	;# 
   157     0D97                     	;# 
   158     0D98                     	;# 
   159     0D99                     	;# 
   160     0D99                     	;# 
   161     0D9A                     	;# 
   162     0D9B                     	;# 
   163     0D9C                     	;# 
   164     0D9C                     	;# 
   165     0D9D                     	;# 
   166     0D9D                     	;# 
   167     0D9E                     	;# 
   168     0D9F                     	;# 
   169     0DA0                     	;# 
   170     0DA1                     	;# 
   171     0DA1                     	;# 
   172     0DA2                     	;# 
   173     0DA3                     	;# 
   174     0DA3                     	;# 
   175     0DA4                     	;# 
   176     0DA5                     	;# 
   177     0DA5                     	;# 
   178     0DA6                     	;# 
   179     0DA7                     	;# 
   180     0DA7                     	;# 
   181     0DA8                     	;# 
   182     0DA9                     	;# 
   183     0DA9                     	;# 
   184     0DAA                     	;# 
   185     0DAB                     	;# 
   186     0DAC                     	;# 
   187     0DAC                     	;# 
   188     0DAD                     	;# 
   189     0DAD                     	;# 
   190     0DAE                     	;# 
   191     0DAF                     	;# 
   192     0DB0                     	;# 
   193     0DB1                     	;# 
   194     0DB1                     	;# 
   195     0DB2                     	;# 
   196     0DB3                     	;# 
   197     0DB3                     	;# 
   198     0DB4                     	;# 
   199     0DB5                     	;# 
   200     0DB5                     	;# 
   201     0DB6                     	;# 
   202     0DB7                     	;# 
   203     0DB7                     	;# 
   204     0DB8                     	;# 
   205     0DB9                     	;# 
   206     0DB9                     	;# 
   207     0DBA                     	;# 
   208     0DBB                     	;# 
   209     0DBC                     	;# 
   210     0DBC                     	;# 
   211     0DBD                     	;# 
   212     0DBD                     	;# 
   213     0DBE                     	;# 
   214     0DBF                     	;# 
   215     0DC0                     	;# 
   216     0FE4                     	;# 
   217     0FE5                     	;# 
   218     0FE6                     	;# 
   219     0FE7                     	;# 
   220     0FE8                     	;# 
   221     0FE8                     	;# 
   222     0FE9                     	;# 
   223     0FEA                     	;# 
   224     0FEA                     	;# 
   225     0FEB                     	;# 
   226     0FED                     	;# 
   227     0FEE                     	;# 
   228     0FEE                     	;# 
   229     0FEF                     	;# 
   230     0000                     	;# 
   231     0001                     	;# 
   232     0002                     	;# 
   233     0003                     	;# 
   234     0004                     	;# 
   235     0005                     	;# 
   236     0006                     	;# 
   237     0007                     	;# 
   238     0008                     	;# 
   239     0009                     	;# 
   240     000A                     	;# 
   241     000B                     	;# 
   242     000C                     	;# 
   243     0011                     	;# 
   244     0012                     	;# 
   245     0013                     	;# 
   246     0015                     	;# 
   247     0016                     	;# 
   248     0016                     	;# 
   249     0017                     	;# 
   250     0018                     	;# 
   251     0019                     	;# 
   252     001A                     	;# 
   253     001B                     	;# 
   254     001C                     	;# 
   255     008C                     	;# 
   256     0091                     	;# 
   257     0092                     	;# 
   258     0093                     	;# 
   259     0095                     	;# 
   260     0096                     	;# 
   261     0097                     	;# 
   262     0098                     	;# 
   263     0099                     	;# 
   264     009A                     	;# 
   265     009B                     	;# 
   266     009B                     	;# 
   267     009C                     	;# 
   268     009D                     	;# 
   269     009E                     	;# 
   270     009F                     	;# 
   271     010C                     	;# 
   272     0111                     	;# 
   273     0112                     	;# 
   274     0115                     	;# 
   275     0116                     	;# 
   276     0117                     	;# 
   277     0118                     	;# 
   278     0119                     	;# 
   279     011D                     	;# 
   280     011D                     	;# 
   281     018C                     	;# 
   282     0191                     	;# 
   283     0191                     	;# 
   284     0192                     	;# 
   285     0193                     	;# 
   286     0193                     	;# 
   287     0194                     	;# 
   288     0195                     	;# 
   289     0196                     	;# 
   290     020C                     	;# 
   291     028C                     	;# 
   292     030C                     	;# 
   293     038C                     	;# 
   294     0391                     	;# 
   295     0392                     	;# 
   296     0393                     	;# 
   297     0691                     	;# 
   298     0692                     	;# 
   299     0693                     	;# 
   300     0694                     	;# 
   301     0695                     	;# 
   302     0D8E                     	;# 
   303     0D8F                     	;# 
   304     0D90                     	;# 
   305     0D91                     	;# 
   306     0D91                     	;# 
   307     0D92                     	;# 
   308     0D93                     	;# 
   309     0D93                     	;# 
   310     0D94                     	;# 
   311     0D95                     	;# 
   312     0D95                     	;# 
   313     0D96                     	;# 
   314     0D97                     	;# 
   315     0D97                     	;# 
   316     0D98                     	;# 
   317     0D99                     	;# 
   318     0D99                     	;# 
   319     0D9A                     	;# 
   320     0D9B                     	;# 
   321     0D9C                     	;# 
   322     0D9C                     	;# 
   323     0D9D                     	;# 
   324     0D9D                     	;# 
   325     0D9E                     	;# 
   326     0D9F                     	;# 
   327     0DA0                     	;# 
   328     0DA1                     	;# 
   329     0DA1                     	;# 
   330     0DA2                     	;# 
   331     0DA3                     	;# 
   332     0DA3                     	;# 
   333     0DA4                     	;# 
   334     0DA5                     	;# 
   335     0DA5                     	;# 
   336     0DA6                     	;# 
   337     0DA7                     	;# 
   338     0DA7                     	;# 
   339     0DA8                     	;# 
   340     0DA9                     	;# 
   341     0DA9                     	;# 
   342     0DAA                     	;# 
   343     0DAB                     	;# 
   344     0DAC                     	;# 
   345     0DAC                     	;# 
   346     0DAD                     	;# 
   347     0DAD                     	;# 
   348     0DAE                     	;# 
   349     0DAF                     	;# 
   350     0DB0                     	;# 
   351     0DB1                     	;# 
   352     0DB1                     	;# 
   353     0DB2                     	;# 
   354     0DB3                     	;# 
   355     0DB3                     	;# 
   356     0DB4                     	;# 
   357     0DB5                     	;# 
   358     0DB5                     	;# 
   359     0DB6                     	;# 
   360     0DB7                     	;# 
   361     0DB7                     	;# 
   362     0DB8                     	;# 
   363     0DB9                     	;# 
   364     0DB9                     	;# 
   365     0DBA                     	;# 
   366     0DBB                     	;# 
   367     0DBC                     	;# 
   368     0DBC                     	;# 
   369     0DBD                     	;# 
   370     0DBD                     	;# 
   371     0DBE                     	;# 
   372     0DBF                     	;# 
   373     0DC0                     	;# 
   374     0FE4                     	;# 
   375     0FE5                     	;# 
   376     0FE6                     	;# 
   377     0FE7                     	;# 
   378     0FE8                     	;# 
   379     0FE8                     	;# 
   380     0FE9                     	;# 
   381     0FEA                     	;# 
   382     0FEA                     	;# 
   383     0FEB                     	;# 
   384     0FED                     	;# 
   385     0FEE                     	;# 
   386     0FEE                     	;# 
   387     0FEF                     	;# 
   388     0000                     	;# 
   389     0001                     	;# 
   390     0002                     	;# 
   391     0003                     	;# 
   392     0004                     	;# 
   393     0005                     	;# 
   394     0006                     	;# 
   395     0007                     	;# 
   396     0008                     	;# 
   397     0009                     	;# 
   398     000A                     	;# 
   399     000B                     	;# 
   400     000C                     	;# 
   401     0011                     	;# 
   402     0012                     	;# 
   403     0013                     	;# 
   404     0015                     	;# 
   405     0016                     	;# 
   406     0016                     	;# 
   407     0017                     	;# 
   408     0018                     	;# 
   409     0019                     	;# 
   410     001A                     	;# 
   411     001B                     	;# 
   412     001C                     	;# 
   413     008C                     	;# 
   414     0091                     	;# 
   415     0092                     	;# 
   416     0093                     	;# 
   417     0095                     	;# 
   418     0096                     	;# 
   419     0097                     	;# 
   420     0098                     	;# 
   421     0099                     	;# 
   422     009A                     	;# 
   423     009B                     	;# 
   424     009B                     	;# 
   425     009C                     	;# 
   426     009D                     	;# 
   427     009E                     	;# 
   428     009F                     	;# 
   429     010C                     	;# 
   430     0111                     	;# 
   431     0112                     	;# 
   432     0115                     	;# 
   433     0116                     	;# 
   434     0117                     	;# 
   435     0118                     	;# 
   436     0119                     	;# 
   437     011D                     	;# 
   438     011D                     	;# 
   439     018C                     	;# 
   440     0191                     	;# 
   441     0191                     	;# 
   442     0192                     	;# 
   443     0193                     	;# 
   444     0193                     	;# 
   445     0194                     	;# 
   446     0195                     	;# 
   447     0196                     	;# 
   448     020C                     	;# 
   449     028C                     	;# 
   450     030C                     	;# 
   451     038C                     	;# 
   452     0391                     	;# 
   453     0392                     	;# 
   454     0393                     	;# 
   455     0691                     	;# 
   456     0692                     	;# 
   457     0693                     	;# 
   458     0694                     	;# 
   459     0695                     	;# 
   460     0D8E                     	;# 
   461     0D8F                     	;# 
   462     0D90                     	;# 
   463     0D91                     	;# 
   464     0D91                     	;# 
   465     0D92                     	;# 
   466     0D93                     	;# 
   467     0D93                     	;# 
   468     0D94                     	;# 
   469     0D95                     	;# 
   470     0D95                     	;# 
   471     0D96                     	;# 
   472     0D97                     	;# 
   473     0D97                     	;# 
   474     0D98                     	;# 
   475     0D99                     	;# 
   476     0D99                     	;# 
   477     0D9A                     	;# 
   478     0D9B                     	;# 
   479     0D9C                     	;# 
   480     0D9C                     	;# 
   481     0D9D                     	;# 
   482     0D9D                     	;# 
   483     0D9E                     	;# 
   484     0D9F                     	;# 
   485     0DA0                     	;# 
   486     0DA1                     	;# 
   487     0DA1                     	;# 
   488     0DA2                     	;# 
   489     0DA3                     	;# 
   490     0DA3                     	;# 
   491     0DA4                     	;# 
   492     0DA5                     	;# 
   493     0DA5                     	;# 
   494     0DA6                     	;# 
   495     0DA7                     	;# 
   496     0DA7                     	;# 
   497     0DA8                     	;# 
   498     0DA9                     	;# 
   499     0DA9                     	;# 
   500     0DAA                     	;# 
   501     0DAB                     	;# 
   502     0DAC                     	;# 
   503     0DAC                     	;# 
   504     0DAD                     	;# 
   505     0DAD                     	;# 
   506     0DAE                     	;# 
   507     0DAF                     	;# 
   508     0DB0                     	;# 
   509     0DB1                     	;# 
   510     0DB1                     	;# 
   511     0DB2                     	;# 
   512     0DB3                     	;# 
   513     0DB3                     	;# 
   514     0DB4                     	;# 
   515     0DB5                     	;# 
   516     0DB5                     	;# 
   517     0DB6                     	;# 
   518     0DB7                     	;# 
   519     0DB7                     	;# 
   520     0DB8                     	;# 
   521     0DB9                     	;# 
   522     0DB9                     	;# 
   523     0DBA                     	;# 
   524     0DBB                     	;# 
   525     0DBC                     	;# 
   526     0DBC                     	;# 
   527     0DBD                     	;# 
   528     0DBD                     	;# 
   529     0DBE                     	;# 
   530     0DBF                     	;# 
   531     0DC0                     	;# 
   532     0FE4                     	;# 
   533     0FE5                     	;# 
   534     0FE6                     	;# 
   535     0FE7                     	;# 
   536     0FE8                     	;# 
   537     0FE8                     	;# 
   538     0FE9                     	;# 
   539     0FEA                     	;# 
   540     0FEA                     	;# 
   541     0FEB                     	;# 
   542     0FED                     	;# 
   543     0FEE                     	;# 
   544     0FEE                     	;# 
   545     0FEF                     	;# 
   546     0000                     	;# 
   547     0001                     	;# 
   548     0002                     	;# 
   549     0003                     	;# 
   550     0004                     	;# 
   551     0005                     	;# 
   552     0006                     	;# 
   553     0007                     	;# 
   554     0008                     	;# 
   555     0009                     	;# 
   556     000A                     	;# 
   557     000B                     	;# 
   558     000C                     	;# 
   559     0011                     	;# 
   560     0012                     	;# 
   561     0013                     	;# 
   562     0015                     	;# 
   563     0016                     	;# 
   564     0016                     	;# 
   565     0017                     	;# 
   566     0018                     	;# 
   567     0019                     	;# 
   568     001A                     	;# 
   569     001B                     	;# 
   570     001C                     	;# 
   571     008C                     	;# 
   572     0091                     	;# 
   573     0092                     	;# 
   574     0093                     	;# 
   575     0095                     	;# 
   576     0096                     	;# 
   577     0097                     	;# 
   578     0098                     	;# 
   579     0099                     	;# 
   580     009A                     	;# 
   581     009B                     	;# 
   582     009B                     	;# 
   583     009C                     	;# 
   584     009D                     	;# 
   585     009E                     	;# 
   586     009F                     	;# 
   587     010C                     	;# 
   588     0111                     	;# 
   589     0112                     	;# 
   590     0115                     	;# 
   591     0116                     	;# 
   592     0117                     	;# 
   593     0118                     	;# 
   594     0119                     	;# 
   595     011D                     	;# 
   596     011D                     	;# 
   597     018C                     	;# 
   598     0191                     	;# 
   599     0191                     	;# 
   600     0192                     	;# 
   601     0193                     	;# 
   602     0193                     	;# 
   603     0194                     	;# 
   604     0195                     	;# 
   605     0196                     	;# 
   606     020C                     	;# 
   607     028C                     	;# 
   608     030C                     	;# 
   609     038C                     	;# 
   610     0391                     	;# 
   611     0392                     	;# 
   612     0393                     	;# 
   613     0691                     	;# 
   614     0692                     	;# 
   615     0693                     	;# 
   616     0694                     	;# 
   617     0695                     	;# 
   618     0D8E                     	;# 
   619     0D8F                     	;# 
   620     0D90                     	;# 
   621     0D91                     	;# 
   622     0D91                     	;# 
   623     0D92                     	;# 
   624     0D93                     	;# 
   625     0D93                     	;# 
   626     0D94                     	;# 
   627     0D95                     	;# 
   628     0D95                     	;# 
   629     0D96                     	;# 
   630     0D97                     	;# 
   631     0D97                     	;# 
   632     0D98                     	;# 
   633     0D99                     	;# 
   634     0D99                     	;# 
   635     0D9A                     	;# 
   636     0D9B                     	;# 
   637     0D9C                     	;# 
   638     0D9C                     	;# 
   639     0D9D                     	;# 
   640     0D9D                     	;# 
   641     0D9E                     	;# 
   642     0D9F                     	;# 
   643     0DA0                     	;# 
   644     0DA1                     	;# 
   645     0DA1                     	;# 
   646     0DA2                     	;# 
   647     0DA3                     	;# 
   648     0DA3                     	;# 
   649     0DA4                     	;# 
   650     0DA5                     	;# 
   651     0DA5                     	;# 
   652     0DA6                     	;# 
   653     0DA7                     	;# 
   654     0DA7                     	;# 
   655     0DA8                     	;# 
   656     0DA9                     	;# 
   657     0DA9                     	;# 
   658     0DAA                     	;# 
   659     0DAB                     	;# 
   660     0DAC                     	;# 
   661     0DAC                     	;# 
   662     0DAD                     	;# 
   663     0DAD                     	;# 
   664     0DAE                     	;# 
   665     0DAF                     	;# 
   666     0DB0                     	;# 
   667     0DB1                     	;# 
   668     0DB1                     	;# 
   669     0DB2                     	;# 
   670     0DB3                     	;# 
   671     0DB3                     	;# 
   672     0DB4                     	;# 
   673     0DB5                     	;# 
   674     0DB5                     	;# 
   675     0DB6                     	;# 
   676     0DB7                     	;# 
   677     0DB7                     	;# 
   678     0DB8                     	;# 
   679     0DB9                     	;# 
   680     0DB9                     	;# 
   681     0DBA                     	;# 
   682     0DBB                     	;# 
   683     0DBC                     	;# 
   684     0DBC                     	;# 
   685     0DBD                     	;# 
   686     0DBD                     	;# 
   687     0DBE                     	;# 
   688     0DBF                     	;# 
   689     0DC0                     	;# 
   690     0FE4                     	;# 
   691     0FE5                     	;# 
   692     0FE6                     	;# 
   693     0FE7                     	;# 
   694     0FE8                     	;# 
   695     0FE8                     	;# 
   696     0FE9                     	;# 
   697     0FEA                     	;# 
   698     0FEA                     	;# 
   699     0FEB                     	;# 
   700     0FED                     	;# 
   701     0FEE                     	;# 
   702     0FEE                     	;# 
   703     0FEF                     	;# 
   704     0000                     	;# 
   705     0001                     	;# 
   706     0002                     	;# 
   707     0003                     	;# 
   708     0004                     	;# 
   709     0005                     	;# 
   710     0006                     	;# 
   711     0007                     	;# 
   712     0008                     	;# 
   713     0009                     	;# 
   714     000A                     	;# 
   715     000B                     	;# 
   716     000C                     	;# 
   717     0011                     	;# 
   718     0012                     	;# 
   719     0013                     	;# 
   720     0015                     	;# 
   721     0016                     	;# 
   722     0016                     	;# 
   723     0017                     	;# 
   724     0018                     	;# 
   725     0019                     	;# 
   726     001A                     	;# 
   727     001B                     	;# 
   728     001C                     	;# 
   729     008C                     	;# 
   730     0091                     	;# 
   731     0092                     	;# 
   732     0093                     	;# 
   733     0095                     	;# 
   734     0096                     	;# 
   735     0097                     	;# 
   736     0098                     	;# 
   737     0099                     	;# 
   738     009A                     	;# 
   739     009B                     	;# 
   740     009B                     	;# 
   741     009C                     	;# 
   742     009D                     	;# 
   743     009E                     	;# 
   744     009F                     	;# 
   745     010C                     	;# 
   746     0111                     	;# 
   747     0112                     	;# 
   748     0115                     	;# 
   749     0116                     	;# 
   750     0117                     	;# 
   751     0118                     	;# 
   752     0119                     	;# 
   753     011D                     	;# 
   754     011D                     	;# 
   755     018C                     	;# 
   756     0191                     	;# 
   757     0191                     	;# 
   758     0192                     	;# 
   759     0193                     	;# 
   760     0193                     	;# 
   761     0194                     	;# 
   762     0195                     	;# 
   763     0196                     	;# 
   764     020C                     	;# 
   765     028C                     	;# 
   766     030C                     	;# 
   767     038C                     	;# 
   768     0391                     	;# 
   769     0392                     	;# 
   770     0393                     	;# 
   771     0691                     	;# 
   772     0692                     	;# 
   773     0693                     	;# 
   774     0694                     	;# 
   775     0695                     	;# 
   776     0D8E                     	;# 
   777     0D8F                     	;# 
   778     0D90                     	;# 
   779     0D91                     	;# 
   780     0D91                     	;# 
   781     0D92                     	;# 
   782     0D93                     	;# 
   783     0D93                     	;# 
   784     0D94                     	;# 
   785     0D95                     	;# 
   786     0D95                     	;# 
   787     0D96                     	;# 
   788     0D97                     	;# 
   789     0D97                     	;# 
   790     0D98                     	;# 
   791     0D99                     	;# 
   792     0D99                     	;# 
   793     0D9A                     	;# 
   794     0D9B                     	;# 
   795     0D9C                     	;# 
   796     0D9C                     	;# 
   797     0D9D                     	;# 
   798     0D9D                     	;# 
   799     0D9E                     	;# 
   800     0D9F                     	;# 
   801     0DA0                     	;# 
   802     0DA1                     	;# 
   803     0DA1                     	;# 
   804     0DA2                     	;# 
   805     0DA3                     	;# 
   806     0DA3                     	;# 
   807     0DA4                     	;# 
   808     0DA5                     	;# 
   809     0DA5                     	;# 
   810     0DA6                     	;# 
   811     0DA7                     	;# 
   812     0DA7                     	;# 
   813     0DA8                     	;# 
   814     0DA9                     	;# 
   815     0DA9                     	;# 
   816     0DAA                     	;# 
   817     0DAB                     	;# 
   818     0DAC                     	;# 
   819     0DAC                     	;# 
   820     0DAD                     	;# 
   821     0DAD                     	;# 
   822     0DAE                     	;# 
   823     0DAF                     	;# 
   824     0DB0                     	;# 
   825     0DB1                     	;# 
   826     0DB1                     	;# 
   827     0DB2                     	;# 
   828     0DB3                     	;# 
   829     0DB3                     	;# 
   830     0DB4                     	;# 
   831     0DB5                     	;# 
   832     0DB5                     	;# 
   833     0DB6                     	;# 
   834     0DB7                     	;# 
   835     0DB7                     	;# 
   836     0DB8                     	;# 
   837     0DB9                     	;# 
   838     0DB9                     	;# 
   839     0DBA                     	;# 
   840     0DBB                     	;# 
   841     0DBC                     	;# 
   842     0DBC                     	;# 
   843     0DBD                     	;# 
   844     0DBD                     	;# 
   845     0DBE                     	;# 
   846     0DBF                     	;# 
   847     0DC0                     	;# 
   848     0FE4                     	;# 
   849     0FE5                     	;# 
   850     0FE6                     	;# 
   851     0FE7                     	;# 
   852     0FE8                     	;# 
   853     0FE8                     	;# 
   854     0FE9                     	;# 
   855     0FEA                     	;# 
   856     0FEA                     	;# 
   857     0FEB                     	;# 
   858     0FED                     	;# 
   859     0FEE                     	;# 
   860     0FEE                     	;# 
   861     0FEF                     	;# 
   862     0000                     	;# 
   863     0001                     	;# 
   864     0002                     	;# 
   865     0003                     	;# 
   866     0004                     	;# 
   867     0005                     	;# 
   868     0006                     	;# 
   869     0007                     	;# 
   870     0008                     	;# 
   871     0009                     	;# 
   872     000A                     	;# 
   873     000B                     	;# 
   874     000C                     	;# 
   875     0011                     	;# 
   876     0012                     	;# 
   877     0013                     	;# 
   878     0015                     	;# 
   879     0016                     	;# 
   880     0016                     	;# 
   881     0017                     	;# 
   882     0018                     	;# 
   883     0019                     	;# 
   884     001A                     	;# 
   885     001B                     	;# 
   886     001C                     	;# 
   887     008C                     	;# 
   888     0091                     	;# 
   889     0092                     	;# 
   890     0093                     	;# 
   891     0095                     	;# 
   892     0096                     	;# 
   893     0097                     	;# 
   894     0098                     	;# 
   895     0099                     	;# 
   896     009A                     	;# 
   897     009B                     	;# 
   898     009B                     	;# 
   899     009C                     	;# 
   900     009D                     	;# 
   901     009E                     	;# 
   902     009F                     	;# 
   903     010C                     	;# 
   904     0111                     	;# 
   905     0112                     	;# 
   906     0115                     	;# 
   907     0116                     	;# 
   908     0117                     	;# 
   909     0118                     	;# 
   910     0119                     	;# 
   911     011D                     	;# 
   912     011D                     	;# 
   913     018C                     	;# 
   914     0191                     	;# 
   915     0191                     	;# 
   916     0192                     	;# 
   917     0193                     	;# 
   918     0193                     	;# 
   919     0194                     	;# 
   920     0195                     	;# 
   921     0196                     	;# 
   922     020C                     	;# 
   923     028C                     	;# 
   924     030C                     	;# 
   925     038C                     	;# 
   926     0391                     	;# 
   927     0392                     	;# 
   928     0393                     	;# 
   929     0691                     	;# 
   930     0692                     	;# 
   931     0693                     	;# 
   932     0694                     	;# 
   933     0695                     	;# 
   934     0D8E                     	;# 
   935     0D8F                     	;# 
   936     0D90                     	;# 
   937     0D91                     	;# 
   938     0D91                     	;# 
   939     0D92                     	;# 
   940     0D93                     	;# 
   941     0D93                     	;# 
   942     0D94                     	;# 
   943     0D95                     	;# 
   944     0D95                     	;# 
   945     0D96                     	;# 
   946     0D97                     	;# 
   947     0D97                     	;# 
   948     0D98                     	;# 
   949     0D99                     	;# 
   950     0D99                     	;# 
   951     0D9A                     	;# 
   952     0D9B                     	;# 
   953     0D9C                     	;# 
   954     0D9C                     	;# 
   955     0D9D                     	;# 
   956     0D9D                     	;# 
   957     0D9E                     	;# 
   958     0D9F                     	;# 
   959     0DA0                     	;# 
   960     0DA1                     	;# 
   961     0DA1                     	;# 
   962     0DA2                     	;# 
   963     0DA3                     	;# 
   964     0DA3                     	;# 
   965     0DA4                     	;# 
   966     0DA5                     	;# 
   967     0DA5                     	;# 
   968     0DA6                     	;# 
   969     0DA7                     	;# 
   970     0DA7                     	;# 
   971     0DA8                     	;# 
   972     0DA9                     	;# 
   973     0DA9                     	;# 
   974     0DAA                     	;# 
   975     0DAB                     	;# 
   976     0DAC                     	;# 
   977     0DAC                     	;# 
   978     0DAD                     	;# 
   979     0DAD                     	;# 
   980     0DAE                     	;# 
   981     0DAF                     	;# 
   982     0DB0                     	;# 
   983     0DB1                     	;# 
   984     0DB1                     	;# 
   985     0DB2                     	;# 
   986     0DB3                     	;# 
   987     0DB3                     	;# 
   988     0DB4                     	;# 
   989     0DB5                     	;# 
   990     0DB5                     	;# 
   991     0DB6                     	;# 
   992     0DB7                     	;# 
   993     0DB7                     	;# 
   994     0DB8                     	;# 
   995     0DB9                     	;# 
   996     0DB9                     	;# 
   997     0DBA                     	;# 
   998     0DBB                     	;# 
   999     0DBC                     	;# 
  1000     0DBC                     	;# 
  1001     0DBD                     	;# 
  1002     0DBD                     	;# 
  1003     0DBE                     	;# 
  1004     0DBF                     	;# 
  1005     0DC0                     	;# 
  1006     0FE4                     	;# 
  1007     0FE5                     	;# 
  1008     0FE6                     	;# 
  1009     0FE7                     	;# 
  1010     0FE8                     	;# 
  1011     0FE8                     	;# 
  1012     0FE9                     	;# 
  1013     0FEA                     	;# 
  1014     0FEA                     	;# 
  1015     0FEB                     	;# 
  1016     0FED                     	;# 
  1017     0FEE                     	;# 
  1018     0FEE                     	;# 
  1019     0FEF                     	;# 
  1020     0000                     	;# 
  1021     0001                     	;# 
  1022     0002                     	;# 
  1023     0003                     	;# 
  1024     0004                     	;# 
  1025     0005                     	;# 
  1026     0006                     	;# 
  1027     0007                     	;# 
  1028     0008                     	;# 
  1029     0009                     	;# 
  1030     000A                     	;# 
  1031     000B                     	;# 
  1032     000C                     	;# 
  1033     0011                     	;# 
  1034     0012                     	;# 
  1035     0013                     	;# 
  1036     0015                     	;# 
  1037     0016                     	;# 
  1038     0016                     	;# 
  1039     0017                     	;# 
  1040     0018                     	;# 
  1041     0019                     	;# 
  1042     001A                     	;# 
  1043     001B                     	;# 
  1044     001C                     	;# 
  1045     008C                     	;# 
  1046     0091                     	;# 
  1047     0092                     	;# 
  1048     0093                     	;# 
  1049     0095                     	;# 
  1050     0096                     	;# 
  1051     0097                     	;# 
  1052     0098                     	;# 
  1053     0099                     	;# 
  1054     009A                     	;# 
  1055     009B                     	;# 
  1056     009B                     	;# 
  1057     009C                     	;# 
  1058     009D                     	;# 
  1059     009E                     	;# 
  1060     009F                     	;# 
  1061     010C                     	;# 
  1062     0111                     	;# 
  1063     0112                     	;# 
  1064     0115                     	;# 
  1065     0116                     	;# 
  1066     0117                     	;# 
  1067     0118                     	;# 
  1068     0119                     	;# 
  1069     011D                     	;# 
  1070     011D                     	;# 
  1071     018C                     	;# 
  1072     0191                     	;# 
  1073     0191                     	;# 
  1074     0192                     	;# 
  1075     0193                     	;# 
  1076     0193                     	;# 
  1077     0194                     	;# 
  1078     0195                     	;# 
  1079     0196                     	;# 
  1080     020C                     	;# 
  1081     028C                     	;# 
  1082     030C                     	;# 
  1083     038C                     	;# 
  1084     0391                     	;# 
  1085     0392                     	;# 
  1086     0393                     	;# 
  1087     0691                     	;# 
  1088     0692                     	;# 
  1089     0693                     	;# 
  1090     0694                     	;# 
  1091     0695                     	;# 
  1092     0D8E                     	;# 
  1093     0D8F                     	;# 
  1094     0D90                     	;# 
  1095     0D91                     	;# 
  1096     0D91                     	;# 
  1097     0D92                     	;# 
  1098     0D93                     	;# 
  1099     0D93                     	;# 
  1100     0D94                     	;# 
  1101     0D95                     	;# 
  1102     0D95                     	;# 
  1103     0D96                     	;# 
  1104     0D97                     	;# 
  1105     0D97                     	;# 
  1106     0D98                     	;# 
  1107     0D99                     	;# 
  1108     0D99                     	;# 
  1109     0D9A                     	;# 
  1110     0D9B                     	;# 
  1111     0D9C                     	;# 
  1112     0D9C                     	;# 
  1113     0D9D                     	;# 
  1114     0D9D                     	;# 
  1115     0D9E                     	;# 
  1116     0D9F                     	;# 
  1117     0DA0                     	;# 
  1118     0DA1                     	;# 
  1119     0DA1                     	;# 
  1120     0DA2                     	;# 
  1121     0DA3                     	;# 
  1122     0DA3                     	;# 
  1123     0DA4                     	;# 
  1124     0DA5                     	;# 
  1125     0DA5                     	;# 
  1126     0DA6                     	;# 
  1127     0DA7                     	;# 
  1128     0DA7                     	;# 
  1129     0DA8                     	;# 
  1130     0DA9                     	;# 
  1131     0DA9                     	;# 
  1132     0DAA                     	;# 
  1133     0DAB                     	;# 
  1134     0DAC                     	;# 
  1135     0DAC                     	;# 
  1136     0DAD                     	;# 
  1137     0DAD                     	;# 
  1138     0DAE                     	;# 
  1139     0DAF                     	;# 
  1140     0DB0                     	;# 
  1141     0DB1                     	;# 
  1142     0DB1                     	;# 
  1143     0DB2                     	;# 
  1144     0DB3                     	;# 
  1145     0DB3                     	;# 
  1146     0DB4                     	;# 
  1147     0DB5                     	;# 
  1148     0DB5                     	;# 
  1149     0DB6                     	;# 
  1150     0DB7                     	;# 
  1151     0DB7                     	;# 
  1152     0DB8                     	;# 
  1153     0DB9                     	;# 
  1154     0DB9                     	;# 
  1155     0DBA                     	;# 
  1156     0DBB                     	;# 
  1157     0DBC                     	;# 
  1158     0DBC                     	;# 
  1159     0DBD                     	;# 
  1160     0DBD                     	;# 
  1161     0DBE                     	;# 
  1162     0DBF                     	;# 
  1163     0DC0                     	;# 
  1164     0FE4                     	;# 
  1165     0FE5                     	;# 
  1166     0FE6                     	;# 
  1167     0FE7                     	;# 
  1168     0FE8                     	;# 
  1169     0FE8                     	;# 
  1170     0FE9                     	;# 
  1171     0FEA                     	;# 
  1172     0FEA                     	;# 
  1173     0FEB                     	;# 
  1174     0FED                     	;# 
  1175     0FEE                     	;# 
  1176     0FEE                     	;# 
  1177     0FEF                     	;# 
  1178     0000                     	;# 
  1179     0001                     	;# 
  1180     0002                     	;# 
  1181     0003                     	;# 
  1182     0004                     	;# 
  1183     0005                     	;# 
  1184     0006                     	;# 
  1185     0007                     	;# 
  1186     0008                     	;# 
  1187     0009                     	;# 
  1188     000A                     	;# 
  1189     000B                     	;# 
  1190     000C                     	;# 
  1191     0011                     	;# 
  1192     0012                     	;# 
  1193     0013                     	;# 
  1194     0015                     	;# 
  1195     0016                     	;# 
  1196     0016                     	;# 
  1197     0017                     	;# 
  1198     0018                     	;# 
  1199     0019                     	;# 
  1200     001A                     	;# 
  1201     001B                     	;# 
  1202     001C                     	;# 
  1203     008C                     	;# 
  1204     0091                     	;# 
  1205     0092                     	;# 
  1206     0093                     	;# 
  1207     0095                     	;# 
  1208     0096                     	;# 
  1209     0097                     	;# 
  1210     0098                     	;# 
  1211     0099                     	;# 
  1212     009A                     	;# 
  1213     009B                     	;# 
  1214     009B                     	;# 
  1215     009C                     	;# 
  1216     009D                     	;# 
  1217     009E                     	;# 
  1218     009F                     	;# 
  1219     010C                     	;# 
  1220     0111                     	;# 
  1221     0112                     	;# 
  1222     0115                     	;# 
  1223     0116                     	;# 
  1224     0117                     	;# 
  1225     0118                     	;# 
  1226     0119                     	;# 
  1227     011D                     	;# 
  1228     011D                     	;# 
  1229     018C                     	;# 
  1230     0191                     	;# 
  1231     0191                     	;# 
  1232     0192                     	;# 
  1233     0193                     	;# 
  1234     0193                     	;# 
  1235     0194                     	;# 
  1236     0195                     	;# 
  1237     0196                     	;# 
  1238     020C                     	;# 
  1239     028C                     	;# 
  1240     030C                     	;# 
  1241     038C                     	;# 
  1242     0391                     	;# 
  1243     0392                     	;# 
  1244     0393                     	;# 
  1245     0691                     	;# 
  1246     0692                     	;# 
  1247     0693                     	;# 
  1248     0694                     	;# 
  1249     0695                     	;# 
  1250     0D8E                     	;# 
  1251     0D8F                     	;# 
  1252     0D90                     	;# 
  1253     0D91                     	;# 
  1254     0D91                     	;# 
  1255     0D92                     	;# 
  1256     0D93                     	;# 
  1257     0D93                     	;# 
  1258     0D94                     	;# 
  1259     0D95                     	;# 
  1260     0D95                     	;# 
  1261     0D96                     	;# 
  1262     0D97                     	;# 
  1263     0D97                     	;# 
  1264     0D98                     	;# 
  1265     0D99                     	;# 
  1266     0D99                     	;# 
  1267     0D9A                     	;# 
  1268     0D9B                     	;# 
  1269     0D9C                     	;# 
  1270     0D9C                     	;# 
  1271     0D9D                     	;# 
  1272     0D9D                     	;# 
  1273     0D9E                     	;# 
  1274     0D9F                     	;# 
  1275     0DA0                     	;# 
  1276     0DA1                     	;# 
  1277     0DA1                     	;# 
  1278     0DA2                     	;# 
  1279     0DA3                     	;# 
  1280     0DA3                     	;# 
  1281     0DA4                     	;# 
  1282     0DA5                     	;# 
  1283     0DA5                     	;# 
  1284     0DA6                     	;# 
  1285     0DA7                     	;# 
  1286     0DA7                     	;# 
  1287     0DA8                     	;# 
  1288     0DA9                     	;# 
  1289     0DA9                     	;# 
  1290     0DAA                     	;# 
  1291     0DAB                     	;# 
  1292     0DAC                     	;# 
  1293     0DAC                     	;# 
  1294     0DAD                     	;# 
  1295     0DAD                     	;# 
  1296     0DAE                     	;# 
  1297     0DAF                     	;# 
  1298     0DB0                     	;# 
  1299     0DB1                     	;# 
  1300     0DB1                     	;# 
  1301     0DB2                     	;# 
  1302     0DB3                     	;# 
  1303     0DB3                     	;# 
  1304     0DB4                     	;# 
  1305     0DB5                     	;# 
  1306     0DB5                     	;# 
  1307     0DB6                     	;# 
  1308     0DB7                     	;# 
  1309     0DB7                     	;# 
  1310     0DB8                     	;# 
  1311     0DB9                     	;# 
  1312     0DB9                     	;# 
  1313     0DBA                     	;# 
  1314     0DBB                     	;# 
  1315     0DBC                     	;# 
  1316     0DBC                     	;# 
  1317     0DBD                     	;# 
  1318     0DBD                     	;# 
  1319     0DBE                     	;# 
  1320     0DBF                     	;# 
  1321     0DC0                     	;# 
  1322     0FE4                     	;# 
  1323     0FE5                     	;# 
  1324     0FE6                     	;# 
  1325     0FE7                     	;# 
  1326     0FE8                     	;# 
  1327     0FE8                     	;# 
  1328     0FE9                     	;# 
  1329     0FEA                     	;# 
  1330     0FEA                     	;# 
  1331     0FEB                     	;# 
  1332     0FED                     	;# 
  1333     0FEE                     	;# 
  1334     0FEE                     	;# 
  1335     0FEF                     	;# 
  1336     0000                     	;# 
  1337     0001                     	;# 
  1338     0002                     	;# 
  1339     0003                     	;# 
  1340     0004                     	;# 
  1341     0005                     	;# 
  1342     0006                     	;# 
  1343     0007                     	;# 
  1344     0008                     	;# 
  1345     0009                     	;# 
  1346     000A                     	;# 
  1347     000B                     	;# 
  1348     000C                     	;# 
  1349     0011                     	;# 
  1350     0012                     	;# 
  1351     0013                     	;# 
  1352     0015                     	;# 
  1353     0016                     	;# 
  1354     0016                     	;# 
  1355     0017                     	;# 
  1356     0018                     	;# 
  1357     0019                     	;# 
  1358     001A                     	;# 
  1359     001B                     	;# 
  1360     001C                     	;# 
  1361     008C                     	;# 
  1362     0091                     	;# 
  1363     0092                     	;# 
  1364     0093                     	;# 
  1365     0095                     	;# 
  1366     0096                     	;# 
  1367     0097                     	;# 
  1368     0098                     	;# 
  1369     0099                     	;# 
  1370     009A                     	;# 
  1371     009B                     	;# 
  1372     009B                     	;# 
  1373     009C                     	;# 
  1374     009D                     	;# 
  1375     009E                     	;# 
  1376     009F                     	;# 
  1377     010C                     	;# 
  1378     0111                     	;# 
  1379     0112                     	;# 
  1380     0115                     	;# 
  1381     0116                     	;# 
  1382     0117                     	;# 
  1383     0118                     	;# 
  1384     0119                     	;# 
  1385     011D                     	;# 
  1386     011D                     	;# 
  1387     018C                     	;# 
  1388     0191                     	;# 
  1389     0191                     	;# 
  1390     0192                     	;# 
  1391     0193                     	;# 
  1392     0193                     	;# 
  1393     0194                     	;# 
  1394     0195                     	;# 
  1395     0196                     	;# 
  1396     020C                     	;# 
  1397     028C                     	;# 
  1398     030C                     	;# 
  1399     038C                     	;# 
  1400     0391                     	;# 
  1401     0392                     	;# 
  1402     0393                     	;# 
  1403     0691                     	;# 
  1404     0692                     	;# 
  1405     0693                     	;# 
  1406     0694                     	;# 
  1407     0695                     	;# 
  1408     0D8E                     	;# 
  1409     0D8F                     	;# 
  1410     0D90                     	;# 
  1411     0D91                     	;# 
  1412     0D91                     	;# 
  1413     0D92                     	;# 
  1414     0D93                     	;# 
  1415     0D93                     	;# 
  1416     0D94                     	;# 
  1417     0D95                     	;# 
  1418     0D95                     	;# 
  1419     0D96                     	;# 
  1420     0D97                     	;# 
  1421     0D97                     	;# 
  1422     0D98                     	;# 
  1423     0D99                     	;# 
  1424     0D99                     	;# 
  1425     0D9A                     	;# 
  1426     0D9B                     	;# 
  1427     0D9C                     	;# 
  1428     0D9C                     	;# 
  1429     0D9D                     	;# 
  1430     0D9D                     	;# 
  1431     0D9E                     	;# 
  1432     0D9F                     	;# 
  1433     0DA0                     	;# 
  1434     0DA1                     	;# 
  1435     0DA1                     	;# 
  1436     0DA2                     	;# 
  1437     0DA3                     	;# 
  1438     0DA3                     	;# 
  1439     0DA4                     	;# 
  1440     0DA5                     	;# 
  1441     0DA5                     	;# 
  1442     0DA6                     	;# 
  1443     0DA7                     	;# 
  1444     0DA7                     	;# 
  1445     0DA8                     	;# 
  1446     0DA9                     	;# 
  1447     0DA9                     	;# 
  1448     0DAA                     	;# 
  1449     0DAB                     	;# 
  1450     0DAC                     	;# 
  1451     0DAC                     	;# 
  1452     0DAD                     	;# 
  1453     0DAD                     	;# 
  1454     0DAE                     	;# 
  1455     0DAF                     	;# 
  1456     0DB0                     	;# 
  1457     0DB1                     	;# 
  1458     0DB1                     	;# 
  1459     0DB2                     	;# 
  1460     0DB3                     	;# 
  1461     0DB3                     	;# 
  1462     0DB4                     	;# 
  1463     0DB5                     	;# 
  1464     0DB5                     	;# 
  1465     0DB6                     	;# 
  1466     0DB7                     	;# 
  1467     0DB7                     	;# 
  1468     0DB8                     	;# 
  1469     0DB9                     	;# 
  1470     0DB9                     	;# 
  1471     0DBA                     	;# 
  1472     0DBB                     	;# 
  1473     0DBC                     	;# 
  1474     0DBC                     	;# 
  1475     0DBD                     	;# 
  1476     0DBD                     	;# 
  1477     0DBE                     	;# 
  1478     0DBF                     	;# 
  1479     0DC0                     	;# 
  1480     0FE4                     	;# 
  1481     0FE5                     	;# 
  1482     0FE6                     	;# 
  1483     0FE7                     	;# 
  1484     0FE8                     	;# 
  1485     0FE8                     	;# 
  1486     0FE9                     	;# 
  1487     0FEA                     	;# 
  1488     0FEA                     	;# 
  1489     0FEB                     	;# 
  1490     0FED                     	;# 
  1491     0FEE                     	;# 
  1492     0FEE                     	;# 
  1493     0FEF                     	;# 
  1494     0000                     	;# 
  1495     0001                     	;# 
  1496     0002                     	;# 
  1497     0003                     	;# 
  1498     0004                     	;# 
  1499     0005                     	;# 
  1500     0006                     	;# 
  1501     0007                     	;# 
  1502     0008                     	;# 
  1503     0009                     	;# 
  1504     000A                     	;# 
  1505     000B                     	;# 
  1506     000C                     	;# 
  1507     0011                     	;# 
  1508     0012                     	;# 
  1509     0013                     	;# 
  1510     0015                     	;# 
  1511     0016                     	;# 
  1512     0016                     	;# 
  1513     0017                     	;# 
  1514     0018                     	;# 
  1515     0019                     	;# 
  1516     001A                     	;# 
  1517     001B                     	;# 
  1518     001C                     	;# 
  1519     008C                     	;# 
  1520     0091                     	;# 
  1521     0092                     	;# 
  1522     0093                     	;# 
  1523     0095                     	;# 
  1524     0096                     	;# 
  1525     0097                     	;# 
  1526     0098                     	;# 
  1527     0099                     	;# 
  1528     009A                     	;# 
  1529     009B                     	;# 
  1530     009B                     	;# 
  1531     009C                     	;# 
  1532     009D                     	;# 
  1533     009E                     	;# 
  1534     009F                     	;# 
  1535     010C                     	;# 
  1536     0111                     	;# 
  1537     0112                     	;# 
  1538     0115                     	;# 
  1539     0116                     	;# 
  1540     0117                     	;# 
  1541     0118                     	;# 
  1542     0119                     	;# 
  1543     011D                     	;# 
  1544     011D                     	;# 
  1545     018C                     	;# 
  1546     0191                     	;# 
  1547     0191                     	;# 
  1548     0192                     	;# 
  1549     0193                     	;# 
  1550     0193                     	;# 
  1551     0194                     	;# 
  1552     0195                     	;# 
  1553     0196                     	;# 
  1554     020C                     	;# 
  1555     028C                     	;# 
  1556     030C                     	;# 
  1557     038C                     	;# 
  1558     0391                     	;# 
  1559     0392                     	;# 
  1560     0393                     	;# 
  1561     0691                     	;# 
  1562     0692                     	;# 
  1563     0693                     	;# 
  1564     0694                     	;# 
  1565     0695                     	;# 
  1566     0D8E                     	;# 
  1567     0D8F                     	;# 
  1568     0D90                     	;# 
  1569     0D91                     	;# 
  1570     0D91                     	;# 
  1571     0D92                     	;# 
  1572     0D93                     	;# 
  1573     0D93                     	;# 
  1574     0D94                     	;# 
  1575     0D95                     	;# 
  1576     0D95                     	;# 
  1577     0D96                     	;# 
  1578     0D97                     	;# 
  1579     0D97                     	;# 
  1580     0D98                     	;# 
  1581     0D99                     	;# 
  1582     0D99                     	;# 
  1583     0D9A                     	;# 
  1584     0D9B                     	;# 
  1585     0D9C                     	;# 
  1586     0D9C                     	;# 
  1587     0D9D                     	;# 
  1588     0D9D                     	;# 
  1589     0D9E                     	;# 
  1590     0D9F                     	;# 
  1591     0DA0                     	;# 
  1592     0DA1                     	;# 
  1593     0DA1                     	;# 
  1594     0DA2                     	;# 
  1595     0DA3                     	;# 
  1596     0DA3                     	;# 
  1597     0DA4                     	;# 
  1598     0DA5                     	;# 
  1599     0DA5                     	;# 
  1600     0DA6                     	;# 
  1601     0DA7                     	;# 
  1602     0DA7                     	;# 
  1603     0DA8                     	;# 
  1604     0DA9                     	;# 
  1605     0DA9                     	;# 
  1606     0DAA                     	;# 
  1607     0DAB                     	;# 
  1608     0DAC                     	;# 
  1609     0DAC                     	;# 
  1610     0DAD                     	;# 
  1611     0DAD                     	;# 
  1612     0DAE                     	;# 
  1613     0DAF                     	;# 
  1614     0DB0                     	;# 
  1615     0DB1                     	;# 
  1616     0DB1                     	;# 
  1617     0DB2                     	;# 
  1618     0DB3                     	;# 
  1619     0DB3                     	;# 
  1620     0DB4                     	;# 
  1621     0DB5                     	;# 
  1622     0DB5                     	;# 
  1623     0DB6                     	;# 
  1624     0DB7                     	;# 
  1625     0DB7                     	;# 
  1626     0DB8                     	;# 
  1627     0DB9                     	;# 
  1628     0DB9                     	;# 
  1629     0DBA                     	;# 
  1630     0DBB                     	;# 
  1631     0DBC                     	;# 
  1632     0DBC                     	;# 
  1633     0DBD                     	;# 
  1634     0DBD                     	;# 
  1635     0DBE                     	;# 
  1636     0DBF                     	;# 
  1637     0DC0                     	;# 
  1638     0FE4                     	;# 
  1639     0FE5                     	;# 
  1640     0FE6                     	;# 
  1641     0FE7                     	;# 
  1642     0FE8                     	;# 
  1643     0FE8                     	;# 
  1644     0FE9                     	;# 
  1645     0FEA                     	;# 
  1646     0FEA                     	;# 
  1647     0FEB                     	;# 
  1648     0FED                     	;# 
  1649     0FEE                     	;# 
  1650     0FEE                     	;# 
  1651     0FEF                     	;# 
  1652                           
  1653                           	psect	idataCOMMON
  1654     0184                     __pidataCOMMON:
  1655                           
  1656                           ;initializer for appHandler@greenOutput
  1657     0184  3484               	retlw	132
  1658     0185  3403               	retlw	3
  1659                           
  1660                           ;initializer for appHandler@blueOutput
  1661     0186  3458               	retlw	88
  1662     0187  3402               	retlw	2
  1663                           
  1664                           	psect	nvCOMMON
  1665     0078                     __pnvCOMMON:
  1666     0078                     _timer1ReloadVal:
  1667     0078                     	ds	2
  1668                           
  1669                           	psect	nvBANK0
  1670     0028                     __pnvBANK0:
  1671     0028                     _TMR1_InterruptHandler:
  1672     0028                     	ds	2
  1673     000B                     _INTCONbits	set	11
  1674     0019                     _T1GCONbits	set	25
  1675     0018                     _T1CONbits	set	24
  1676     0018                     _T1CON	set	24
  1677     0016                     _TMR1L	set	22
  1678     0017                     _TMR1H	set	23
  1679     0019                     _T1GCON	set	25
  1680     001C                     _T2CONbits	set	28
  1681     001C                     _T2CON	set	28
  1682     0011                     _PIR1bits	set	17
  1683     001A                     _TMR2	set	26
  1684     001B                     _PR2	set	27
  1685     0091                     _PIE1bits	set	145
  1686     0097                     _WDTCON	set	151
  1687     0098                     _OSCTUNE	set	152
  1688     0099                     _OSCCON	set	153
  1689     0095                     _OPTION_REGbits	set	149
  1690     008C                     _TRISA	set	140
  1691     010C                     _LATAbits	set	268
  1692     0116                     _BORCON	set	278
  1693     011D                     _APFCON	set	285
  1694     010C                     _LATA	set	268
  1695     018C                     _ANSELA	set	396
  1696     020C                     _WPUA	set	524
  1697     028C                     _ODCONA	set	652
  1698     030C                     _SLRCONA	set	780
  1699     038C                     _INLVLA	set	908
  1700     0DAD                     _PWM2INTFbits	set	3501
  1701     0DAF                     _PWM2LDCONbits	set	3503
  1702     0DAB                     _PWM2CONbits	set	3499
  1703     0DAB                     _PWM2CON	set	3499
  1704     0DA9                     _PWM2TMRL	set	3497
  1705     0DAA                     _PWM2TMRH	set	3498
  1706     0DA7                     _PWM2OFL	set	3495
  1707     0DA8                     _PWM2OFH	set	3496
  1708     0DA5                     _PWM2PRL	set	3493
  1709     0DA6                     _PWM2PRH	set	3494
  1710     0DA3                     _PWM2DCL	set	3491
  1711     0DA4                     _PWM2DCH	set	3492
  1712     0DA1                     _PWM2PHL	set	3489
  1713     0DA2                     _PWM2PHH	set	3490
  1714     0DB0                     _PWM2OFCON	set	3504
  1715     0DAF                     _PWM2LDCON	set	3503
  1716     0DAE                     _PWM2CLKCON	set	3502
  1717     0DAD                     _PWM2INTF	set	3501
  1718     0DAC                     _PWM2INTE	set	3500
  1719     0DBD                     _PWM3INTFbits	set	3517
  1720     0DBF                     _PWM3LDCONbits	set	3519
  1721     0DBB                     _PWM3CONbits	set	3515
  1722     0DBB                     _PWM3CON	set	3515
  1723     0DB9                     _PWM3TMRL	set	3513
  1724     0DBA                     _PWM3TMRH	set	3514
  1725     0DB7                     _PWM3OFL	set	3511
  1726     0DB8                     _PWM3OFH	set	3512
  1727     0DB5                     _PWM3PRL	set	3509
  1728     0DB6                     _PWM3PRH	set	3510
  1729     0DB3                     _PWM3DCL	set	3507
  1730     0DB4                     _PWM3DCH	set	3508
  1731     0DB1                     _PWM3PHL	set	3505
  1732     0DB2                     _PWM3PHH	set	3506
  1733     0DC0                     _PWM3OFCON	set	3520
  1734     0DBF                     _PWM3LDCON	set	3519
  1735     0DBE                     _PWM3CLKCON	set	3518
  1736     0DBD                     _PWM3INTF	set	3517
  1737     0DBC                     _PWM3INTE	set	3516
  1738     0D9D                     _PWM1INTFbits	set	3485
  1739     0D9F                     _PWM1LDCONbits	set	3487
  1740     0D9B                     _PWM1CONbits	set	3483
  1741     0D9B                     _PWM1CON	set	3483
  1742     0D99                     _PWM1TMRL	set	3481
  1743     0D9A                     _PWM1TMRH	set	3482
  1744     0D97                     _PWM1OFL	set	3479
  1745     0D98                     _PWM1OFH	set	3480
  1746     0D95                     _PWM1PRL	set	3477
  1747     0D96                     _PWM1PRH	set	3478
  1748     0D93                     _PWM1DCL	set	3475
  1749     0D94                     _PWM1DCH	set	3476
  1750     0D91                     _PWM1PHL	set	3473
  1751     0D92                     _PWM1PHH	set	3474
  1752     0DA0                     _PWM1OFCON	set	3488
  1753     0D9F                     _PWM1LDCON	set	3487
  1754     0D9E                     _PWM1CLKCON	set	3486
  1755     0D9D                     _PWM1INTF	set	3485
  1756     0D9C                     _PWM1INTE	set	3484
  1757                           
  1758                           	psect	cinit
  1759     001A                     start_initialization:	
  1760                           ; #config settings
  1761                           
  1762     001A                     __initialization:
  1763                           
  1764                           ; Initialize objects allocated to COMMON
  1765     001A  3181  2184  3180   	fcall	__pidataCOMMON	;fetch initializer
  1766     001D  00F4               	movwf	__pdataCOMMON& (0+127)
  1767     001E  3181  2185  3180   	fcall	__pidataCOMMON+1	;fetch initializer
  1768     0021  00F5               	movwf	(__pdataCOMMON+1)& (0+127)
  1769     0022  3181  2186  3180   	fcall	__pidataCOMMON+2	;fetch initializer
  1770     0025  00F6               	movwf	(__pdataCOMMON+2)& (0+127)
  1771     0026  3181  2187  3180   	fcall	__pidataCOMMON+3	;fetch initializer
  1772     0029  00F7               	movwf	(__pdataCOMMON+3)& (0+127)
  1773                           
  1774                           ; Clear objects allocated to COMMON
  1775     002A  01F0               	clrf	__pbssCOMMON& (0+127)
  1776     002B  01F1               	clrf	(__pbssCOMMON+1)& (0+127)
  1777     002C  01F2               	clrf	(__pbssCOMMON+2)& (0+127)
  1778     002D  01F3               	clrf	(__pbssCOMMON+3)& (0+127)
  1779                           
  1780                           ; Clear objects allocated to BANK0
  1781     002E  01A0               	clrf	__pbssBANK0& (0+127)
  1782     002F  01A1               	clrf	(__pbssBANK0+1)& (0+127)
  1783     0030  01A2               	clrf	(__pbssBANK0+2)& (0+127)
  1784     0031  01A3               	clrf	(__pbssBANK0+3)& (0+127)
  1785     0032  01A4               	clrf	(__pbssBANK0+4)& (0+127)
  1786     0033  01A5               	clrf	(__pbssBANK0+5)& (0+127)
  1787     0034  01A6               	clrf	(__pbssBANK0+6)& (0+127)
  1788     0035  01A7               	clrf	(__pbssBANK0+7)& (0+127)
  1789     0036                     end_of_initialization:	
  1790                           ;End of C runtime variable initialization code
  1791                           
  1792     0036                     __end_of__initialization:
  1793     0036  107E               	bcf	int$flags,0	;clear compiler interrupt flag (level 1)
  1794     0037  0020               	movlb	0
  1795     0038  2930               	ljmp	_main	;jump to C main() function
  1796                           
  1797                           	psect	bssCOMMON
  1798     0070                     __pbssCOMMON:
  1799     0070                     appHandler@up:
  1800     0070                     	ds	2
  1801     0072                     appHandler@redOutput:
  1802     0072                     	ds	2
  1803                           
  1804                           	psect	dataCOMMON
  1805     0074                     __pdataCOMMON:
  1806     0074                     appHandler@greenOutput:
  1807     0074                     	ds	2
  1808     0076                     appHandler@blueOutput:
  1809     0076                     	ds	2
  1810                           
  1811                           	psect	bssBANK0
  1812     0020                     __pbssBANK0:
  1813     0020                     _msTicks:
  1814     0020                     	ds	8
  1815                           
  1816                           	psect	cstackCOMMON
  1817     007A                     __pcstackCOMMON:
  1818     007A                     ?_OSCILLATOR_Initialize:
  1819     007A                     ?_WDT_Initialize:	
  1820                           ; 1 bytes @ 0x0
  1821                           
  1822     007A                     ?_PWM1_Initialize:	
  1823                           ; 1 bytes @ 0x0
  1824                           
  1825     007A                     ?_PWM2_Initialize:	
  1826                           ; 1 bytes @ 0x0
  1827                           
  1828     007A                     ?_PWM3_Initialize:	
  1829                           ; 1 bytes @ 0x0
  1830                           
  1831     007A                     ?_TMR1_Initialize:	
  1832                           ; 1 bytes @ 0x0
  1833                           
  1834     007A                     ?_TMR1_DefaultInterruptHandler:	
  1835                           ; 1 bytes @ 0x0
  1836                           
  1837     007A                     ??_TMR1_DefaultInterruptHandler:	
  1838                           ; 1 bytes @ 0x0
  1839                           
  1840     007A                     ?_TMR1_CallBack:	
  1841                           ; 1 bytes @ 0x0
  1842                           
  1843     007A                     ??_TMR1_CallBack:	
  1844                           ; 1 bytes @ 0x0
  1845                           
  1846     007A                     ?_appInit:	
  1847                           ; 1 bytes @ 0x0
  1848                           
  1849     007A                     ?_appHandler:	
  1850                           ; 1 bytes @ 0x0
  1851                           
  1852     007A                     ?_msTick:	
  1853                           ; 1 bytes @ 0x0
  1854                           
  1855     007A                     ??_msTick:	
  1856                           ; 1 bytes @ 0x0
  1857                           
  1858     007A                     ?_PIN_MANAGER_Initialize:	
  1859                           ; 1 bytes @ 0x0
  1860                           
  1861     007A                     ?_TMR2_Initialize:	
  1862                           ; 1 bytes @ 0x0
  1863                           
  1864     007A                     ?_TMR2_StartTimer:	
  1865                           ; 1 bytes @ 0x0
  1866                           
  1867     007A                     ?_SYSTEM_Initialize:	
  1868                           ; 1 bytes @ 0x0
  1869                           
  1870     007A                     ?_TMR1_WriteTimer:	
  1871                           ; 1 bytes @ 0x0
  1872                           
  1873     007A                     ?_TMR1_ISR:	
  1874                           ; 1 bytes @ 0x0
  1875                           
  1876     007A                     ?_INTERRUPT_InterruptManager:	
  1877                           ; 1 bytes @ 0x0
  1878                           
  1879     007A                     ?_main:	
  1880                           ; 1 bytes @ 0x0
  1881                           
  1882     007A                     TMR1_WriteTimer@timerVal:	
  1883                           ; 1 bytes @ 0x0
  1884                           
  1885                           
  1886                           ; 2 bytes @ 0x0
  1887     007A                     	ds	2
  1888     007C                     ??_OSCILLATOR_Initialize:
  1889     007C                     ??_WDT_Initialize:	
  1890                           ; 1 bytes @ 0x2
  1891                           
  1892     007C                     ??_PWM1_Initialize:	
  1893                           ; 1 bytes @ 0x2
  1894                           
  1895     007C                     ??_PWM2_Initialize:	
  1896                           ; 1 bytes @ 0x2
  1897                           
  1898     007C                     ??_PWM3_Initialize:	
  1899                           ; 1 bytes @ 0x2
  1900                           
  1901     007C                     ??_TMR1_Initialize:	
  1902                           ; 1 bytes @ 0x2
  1903                           
  1904     007C                     ??_TMR1_SetInterruptHandler:	
  1905                           ; 1 bytes @ 0x2
  1906                           
  1907     007C                     ??_appInit:	
  1908                           ; 1 bytes @ 0x2
  1909                           
  1910     007C                     ??_PIN_MANAGER_Initialize:	
  1911                           ; 1 bytes @ 0x2
  1912                           
  1913     007C                     ??_TMR2_Initialize:	
  1914                           ; 1 bytes @ 0x2
  1915                           
  1916     007C                     ??_TMR2_StartTimer:	
  1917                           ; 1 bytes @ 0x2
  1918                           
  1919     007C                     ??_SYSTEM_Initialize:	
  1920                           ; 1 bytes @ 0x2
  1921                           
  1922     007C                     ??_TMR1_WriteTimer:	
  1923                           ; 1 bytes @ 0x2
  1924                           
  1925     007C                     ??_TMR1_ISR:	
  1926                           ; 1 bytes @ 0x2
  1927                           
  1928     007C                     ??_INTERRUPT_InterruptManager:	
  1929                           ; 1 bytes @ 0x2
  1930                           
  1931     007C                     ??_main:	
  1932                           ; 1 bytes @ 0x2
  1933                           
  1934                           
  1935                           	psect	cstackBANK0
  1936     002A                     __pcstackBANK0:	
  1937                           ; 1 bytes @ 0x2
  1938                           
  1939     002A                     ?_TMR1_SetInterruptHandler:
  1940     002A                     ??_appHandler:	
  1941                           ; 1 bytes @ 0x0
  1942                           
  1943     002A                     TMR1_SetInterruptHandler@InterruptHandler:	
  1944                           ; 1 bytes @ 0x0
  1945                           
  1946                           
  1947                           ; 2 bytes @ 0x0
  1948     002A                     	ds	2
  1949                           
  1950                           	psect	maintext
  1951     0130                     __pmaintext:	
  1952 ;;
  1953 ;;Main: autosize = 0, tempsize = 0, incstack = 0, save=0
  1954 ;;
  1955 ;; *************** function _main *****************
  1956 ;; Defined at:
  1957 ;;		line 50 in file "main.c"
  1958 ;; Parameters:    Size  Location     Type
  1959 ;;		None
  1960 ;; Auto vars:     Size  Location     Type
  1961 ;;		None
  1962 ;; Return value:  Size  Location     Type
  1963 ;;                  1    wreg      void 
  1964 ;; Registers used:
  1965 ;;		wreg, fsr1l, fsr1h, status,2, status,0, pclath, cstack
  1966 ;; Tracked objects:
  1967 ;;		On entry : B1F/0
  1968 ;;		On exit  : 0/0
  1969 ;;		Unchanged: 0/0
  1970 ;; Data sizes:     COMMON   BANK0   BANK1
  1971 ;;      Params:         0       0       0
  1972 ;;      Locals:         0       0       0
  1973 ;;      Temps:          0       0       0
  1974 ;;      Totals:         0       0       0
  1975 ;;Total ram usage:        0 bytes
  1976 ;; Hardware stack levels required when called: 7
  1977 ;; This function calls:
  1978 ;;		_SYSTEM_Initialize
  1979 ;;		_TMR2_StartTimer
  1980 ;;		_appHandler
  1981 ;;		_appInit
  1982 ;; This function is called by:
  1983 ;;		Startup code after reset
  1984 ;; This function uses a non-reentrant model
  1985 ;;
  1986                           
  1987     0130                     _main:	
  1988                           ;psect for function _main
  1989                           
  1990     0130                     l1462:	
  1991                           ;incstack = 0
  1992                           ; Regs used in _main: [wreg+fsr1l+fsr1h+status,2+status,0+pclath+cstack]
  1993                           
  1994                           
  1995                           ;main.c: 53:     SYSTEM_Initialize();
  1996     0130  3180  2092  3181   	fcall	_SYSTEM_Initialize
  1997     0133                     l1464:
  1998                           
  1999                           ;main.c: 54:     TMR2_StartTimer();
  2000     0133  3181  218C  3181   	fcall	_TMR2_StartTimer
  2001     0136                     l1466:
  2002                           
  2003                           ;main.c: 55:     appInit();
  2004     0136  3181  2166  3181   	fcall	_appInit
  2005     0139                     l1468:
  2006                           
  2007                           ;main.c: 61:     (INTCONbits.GIE = 1);
  2008     0139  178B               	bsf	11,7	;volatile
  2009     013A                     l1470:
  2010                           
  2011                           ;main.c: 64:     (INTCONbits.PEIE = 1);
  2012     013A  170B               	bsf	11,6	;volatile
  2013     013B                     l1472:
  2014                           
  2015                           ;main.c: 73:     {;main.c: 74:         appHandler();
  2016     013B  3180  2039  3181   	fcall	_appHandler
  2017     013E  293B               	goto	l1472
  2018     013F  2819               	ljmp	start
  2019     0140                     __end_of_main:
  2020                           
  2021                           	psect	text1
  2022     0166                     __ptext1:	
  2023 ;; *************** function _appInit *****************
  2024 ;; Defined at:
  2025 ;;		line 44 in file "app.c"
  2026 ;; Parameters:    Size  Location     Type
  2027 ;;		None
  2028 ;; Auto vars:     Size  Location     Type
  2029 ;;		None
  2030 ;; Return value:  Size  Location     Type
  2031 ;;                  1    wreg      void 
  2032 ;; Registers used:
  2033 ;;		wreg, status,2, status,0, pclath, cstack
  2034 ;; Tracked objects:
  2035 ;;		On entry : 0/0
  2036 ;;		On exit  : 0/0
  2037 ;;		Unchanged: 0/0
  2038 ;; Data sizes:     COMMON   BANK0   BANK1
  2039 ;;      Params:         0       0       0
  2040 ;;      Locals:         0       0       0
  2041 ;;      Temps:          0       0       0
  2042 ;;      Totals:         0       0       0
  2043 ;;Total ram usage:        0 bytes
  2044 ;; Hardware stack levels used: 1
  2045 ;; Hardware stack levels required when called: 5
  2046 ;; This function calls:
  2047 ;;		_TMR1_SetInterruptHandler
  2048 ;; This function is called by:
  2049 ;;		_main
  2050 ;; This function uses a non-reentrant model
  2051 ;;
  2052                           
  2053     0166                     _appInit:	
  2054                           ;psect for function _appInit
  2055                           
  2056     0166                     l1438:	
  2057                           ;incstack = 0
  2058                           ; Regs used in _appInit: [wreg+status,2+status,0+pclath+cstack]
  2059                           
  2060                           
  2061                           ;app.c: 45:     TMR1_SetInterruptHandler(msTick);
  2062     0166  305A               	movlw	low _msTick
  2063     0167  0020               	movlb	0	; select bank0
  2064     0168  00AA               	movwf	TMR1_SetInterruptHandler@InterruptHandler
  2065     0169  3001               	movlw	high _msTick
  2066     016A  00AB               	movwf	TMR1_SetInterruptHandler@InterruptHandler+1
  2067     016B  3181  217E  3181   	fcall	_TMR1_SetInterruptHandler
  2068     016E                     l360:
  2069     016E  0008               	return
  2070     016F                     __end_of_appInit:
  2071                           
  2072                           	psect	text2
  2073     0039                     __ptext2:	
  2074 ;; *************** function _appHandler *****************
  2075 ;; Defined at:
  2076 ;;		line 49 in file "app.c"
  2077 ;; Parameters:    Size  Location     Type
  2078 ;;		None
  2079 ;; Auto vars:     Size  Location     Type
  2080 ;;		None
  2081 ;; Return value:  Size  Location     Type
  2082 ;;                  1    wreg      void 
  2083 ;; Registers used:
  2084 ;;		wreg, fsr1l, fsr1h, status,2, status,0
  2085 ;; Tracked objects:
  2086 ;;		On entry : 0/0
  2087 ;;		On exit  : 0/0
  2088 ;;		Unchanged: 0/0
  2089 ;; Data sizes:     COMMON   BANK0   BANK1
  2090 ;;      Params:         0       0       0
  2091 ;;      Locals:         0       0       0
  2092 ;;      Temps:          0       1       0
  2093 ;;      Totals:         0       1       0
  2094 ;;Total ram usage:        1 bytes
  2095 ;; Hardware stack levels used: 1
  2096 ;; Hardware stack levels required when called: 4
  2097 ;; This function calls:
  2098 ;;		Nothing
  2099 ;; This function is called by:
  2100 ;;		_main
  2101 ;; This function uses a non-reentrant model
  2102 ;;
  2103                           
  2104     0039                     _appHandler:	
  2105                           ;psect for function _appHandler
  2106                           
  2107     0039                     l1440:	
  2108                           ;incstack = 0
  2109                           ; Regs used in _appHandler: [wreg+fsr1l+fsr1h+status,2+status,0]
  2110                           
  2111                           
  2112                           ;app.c: 50:     static uint16_t blueOutput = 600;;app.c: 51:     static uint16_t redOutp
      +                          ut = 0;;app.c: 52:     static uint16_t greenOutput = 900;;app.c: 54:     static int up =
      +                           0;;app.c: 56:     if(msTicks >= 1000){
  2113     0039  0020               	movlb	0	; select bank0
  2114     003A  0827               	movf	_msTicks+7,w
  2115     003B  1D03               	btfss	3,2
  2116     003C  2854               	goto	u240
  2117     003D  0826               	movf	_msTicks+6,w
  2118     003E  1D03               	btfss	3,2
  2119     003F  2854               	goto	u240
  2120     0040  0825               	movf	_msTicks+5,w
  2121     0041  1D03               	btfss	3,2
  2122     0042  2854               	goto	u240
  2123     0043  0824               	movf	_msTicks+4,w
  2124     0044  1D03               	btfss	3,2
  2125     0045  2854               	goto	u240
  2126     0046  0823               	movf	_msTicks+3,w
  2127     0047  1D03               	btfss	3,2
  2128     0048  2854               	goto	u240
  2129     0049  0822               	movf	_msTicks+2,w
  2130     004A  1D03               	btfss	3,2
  2131     004B  2854               	goto	u240
  2132     004C  30E8               	movlw	232
  2133     004D  0220               	subwf	_msTicks,w
  2134     004E  3003               	movlw	3
  2135     004F  3B21               	subwfb	_msTicks+1,w
  2136     0050  1C03               	btfss	3,0
  2137     0051  2853               	goto	u241
  2138     0052  2854               	goto	u240
  2139     0053                     u241:
  2140     0053  2891               	goto	l383
  2141     0054                     u240:
  2142     0054                     l1442:
  2143                           
  2144                           ;app.c: 57:         msTicks = 0;
  2145     0054  3020               	movlw	low _msTicks
  2146     0055  0086               	movwf	6
  2147     0056  3000               	movlw	high _msTicks
  2148     0057  0087               	movwf	7
  2149     0058  3008               	movlw	8
  2150     0059  0020               	movlb	0	; select bank0
  2151     005A  00AA               	movwf	??_appHandler
  2152     005B  3000               	movlw	0
  2153     005C                     u250:
  2154     005C  001E               	movwi fsr1++
  2155     005D  0BAA               	decfsz	??_appHandler,f
  2156     005E  285C               	goto	u250
  2157     005F                     l1444:
  2158                           
  2159                           ;app.c: 58:         if(up == 0){
  2160     005F  0870               	movf	appHandler@up,w
  2161     0060  0471               	iorwf	appHandler@up+1,w
  2162     0061  1D03               	btfss	3,2
  2163     0062  2864               	goto	u261
  2164     0063  2865               	goto	u260
  2165     0064                     u261:
  2166     0064  2877               	goto	l1450
  2167     0065                     u260:
  2168     0065                     l1446:
  2169                           
  2170                           ;app.c: 59:             redOutput += 2000;
  2171     0065  30D0               	movlw	208
  2172     0066  07F2               	addwf	appHandler@redOutput,f
  2173     0067  3007               	movlw	7
  2174     0068  3DF3               	addwfc	appHandler@redOutput+1,f
  2175                           
  2176                           ;app.c: 60:             if(redOutput >= 50000){
  2177     0069  30C3               	movlw	195
  2178     006A  0273               	subwf	appHandler@redOutput+1,w
  2179     006B  3050               	movlw	80
  2180     006C  1903               	skipnz
  2181     006D  0272               	subwf	appHandler@redOutput,w
  2182     006E  1C03               	skipc
  2183     006F  2871               	goto	u271
  2184     0070  2872               	goto	u270
  2185     0071                     u271:
  2186     0071  288D               	goto	l1456
  2187     0072                     u270:
  2188     0072                     l1448:
  2189                           
  2190                           ;app.c: 61:                 up = 1;
  2191     0072  3001               	movlw	1
  2192     0073  00F0               	movwf	appHandler@up
  2193     0074  3000               	movlw	0
  2194     0075  00F1               	movwf	appHandler@up+1
  2195     0076  288D               	goto	l1456
  2196     0077                     l1450:
  2197     0077  0370               	decf	appHandler@up,w
  2198     0078  0471               	iorwf	appHandler@up+1,w
  2199     0079  1D03               	btfss	3,2
  2200     007A  287C               	goto	u281
  2201     007B  287D               	goto	u280
  2202     007C                     u281:
  2203     007C  288D               	goto	l1456
  2204     007D                     u280:
  2205     007D                     l1452:
  2206                           
  2207                           ;app.c: 66:             redOutput -= 2000;
  2208     007D  30D0               	movlw	208
  2209     007E  02F2               	subwf	appHandler@redOutput,f
  2210     007F  3007               	movlw	7
  2211     0080  3BF3               	subwfb	appHandler@redOutput+1,f
  2212                           
  2213                           ;app.c: 67:             if (redOutput <= 2000){
  2214     0081  3007               	movlw	7
  2215     0082  0273               	subwf	appHandler@redOutput+1,w
  2216     0083  30D1               	movlw	209
  2217     0084  1903               	skipnz
  2218     0085  0272               	subwf	appHandler@redOutput,w
  2219     0086  1803               	skipnc
  2220     0087  2889               	goto	u291
  2221     0088  288A               	goto	u290
  2222     0089                     u291:
  2223     0089  288D               	goto	l374
  2224     008A                     u290:
  2225     008A                     l1454:
  2226                           
  2227                           ;app.c: 68:                 up = 0;
  2228     008A  01F0               	clrf	appHandler@up
  2229     008B  01F1               	clrf	appHandler@up+1
  2230     008C  288D               	goto	l1456
  2231     008D                     l374:
  2232     008D                     l1456:
  2233     008D  0022               	movlb	2	; select bank2
  2234     008E  168C               	bsf	12,5	;volatile
  2235     008F                     l1458:
  2236     008F  160C               	bsf	12,4	;volatile
  2237     0090                     l1460:
  2238     0090  150C               	bsf	12,2	;volatile
  2239     0091                     l383:
  2240     0091  0008               	return
  2241     0092                     __end_of_appHandler:
  2242                           
  2243                           	psect	text3
  2244     018C                     __ptext3:	
  2245 ;; *************** function _TMR2_StartTimer *****************
  2246 ;; Defined at:
  2247 ;;		line 79 in file "mcc_generated_files/tmr2.c"
  2248 ;; Parameters:    Size  Location     Type
  2249 ;;		None
  2250 ;; Auto vars:     Size  Location     Type
  2251 ;;		None
  2252 ;; Return value:  Size  Location     Type
  2253 ;;                  1    wreg      void 
  2254 ;; Registers used:
  2255 ;;		None
  2256 ;; Tracked objects:
  2257 ;;		On entry : 0/0
  2258 ;;		On exit  : 0/0
  2259 ;;		Unchanged: 0/0
  2260 ;; Data sizes:     COMMON   BANK0   BANK1
  2261 ;;      Params:         0       0       0
  2262 ;;      Locals:         0       0       0
  2263 ;;      Temps:          0       0       0
  2264 ;;      Totals:         0       0       0
  2265 ;;Total ram usage:        0 bytes
  2266 ;; Hardware stack levels used: 1
  2267 ;; Hardware stack levels required when called: 4
  2268 ;; This function calls:
  2269 ;;		Nothing
  2270 ;; This function is called by:
  2271 ;;		_main
  2272 ;; This function uses a non-reentrant model
  2273 ;;
  2274                           
  2275     018C                     _TMR2_StartTimer:	
  2276                           ;psect for function _TMR2_StartTimer
  2277                           
  2278     018C                     l1106:	
  2279                           ;incstack = 0
  2280                           ; Regs used in _TMR2_StartTimer: []
  2281                           
  2282                           
  2283                           ;mcc_generated_files/tmr2.c: 82:     T2CONbits.TMR2ON = 1;
  2284     018C  0020               	movlb	0	; select bank0
  2285     018D  151C               	bsf	28,2	;volatile
  2286     018E                     l40:
  2287     018E  0008               	return
  2288     018F                     __end_of_TMR2_StartTimer:
  2289                           
  2290                           	psect	text4
  2291     0092                     __ptext4:	
  2292 ;; *************** function _SYSTEM_Initialize *****************
  2293 ;; Defined at:
  2294 ;;		line 50 in file "mcc_generated_files/mcc.c"
  2295 ;; Parameters:    Size  Location     Type
  2296 ;;		None
  2297 ;; Auto vars:     Size  Location     Type
  2298 ;;		None
  2299 ;; Return value:  Size  Location     Type
  2300 ;;                  1    wreg      void 
  2301 ;; Registers used:
  2302 ;;		wreg, status,2, status,0, pclath, cstack
  2303 ;; Tracked objects:
  2304 ;;		On entry : 0/0
  2305 ;;		On exit  : 0/0
  2306 ;;		Unchanged: 0/0
  2307 ;; Data sizes:     COMMON   BANK0   BANK1
  2308 ;;      Params:         0       0       0
  2309 ;;      Locals:         0       0       0
  2310 ;;      Temps:          0       0       0
  2311 ;;      Totals:         0       0       0
  2312 ;;Total ram usage:        0 bytes
  2313 ;; Hardware stack levels used: 1
  2314 ;; Hardware stack levels required when called: 6
  2315 ;; This function calls:
  2316 ;;		_OSCILLATOR_Initialize
  2317 ;;		_PIN_MANAGER_Initialize
  2318 ;;		_PWM1_Initialize
  2319 ;;		_PWM2_Initialize
  2320 ;;		_PWM3_Initialize
  2321 ;;		_TMR1_Initialize
  2322 ;;		_TMR2_Initialize
  2323 ;;		_WDT_Initialize
  2324 ;; This function is called by:
  2325 ;;		_main
  2326 ;; This function uses a non-reentrant model
  2327 ;;
  2328                           
  2329     0092                     _SYSTEM_Initialize:	
  2330                           ;psect for function _SYSTEM_Initialize
  2331                           
  2332     0092                     l1436:	
  2333                           ;incstack = 0
  2334                           ; Regs used in _SYSTEM_Initialize: [wreg+status,2+status,0+pclath+cstack]
  2335                           
  2336                           
  2337                           ;mcc_generated_files/mcc.c: 53:     PIN_MANAGER_Initialize();
  2338     0092  3180  20DD  3180   	fcall	_PIN_MANAGER_Initialize
  2339                           
  2340                           ;mcc_generated_files/mcc.c: 54:     OSCILLATOR_Initialize();
  2341     0095  3181  2177  3180   	fcall	_OSCILLATOR_Initialize
  2342                           
  2343                           ;mcc_generated_files/mcc.c: 55:     WDT_Initialize();
  2344     0098  3181  2188  3180   	fcall	_WDT_Initialize
  2345                           
  2346                           ;mcc_generated_files/mcc.c: 56:     PWM1_Initialize();
  2347     009B  3180  20C4  3180   	fcall	_PWM1_Initialize
  2348                           
  2349                           ;mcc_generated_files/mcc.c: 57:     PWM2_Initialize();
  2350     009E  3181  210A  3180   	fcall	_PWM2_Initialize
  2351                           
  2352                           ;mcc_generated_files/mcc.c: 58:     PWM3_Initialize();
  2353     00A1  3180  20F5  3180   	fcall	_PWM3_Initialize
  2354                           
  2355                           ;mcc_generated_files/mcc.c: 59:     TMR2_Initialize();
  2356     00A4  3181  216F  3180   	fcall	_TMR2_Initialize
  2357                           
  2358                           ;mcc_generated_files/mcc.c: 60:     TMR1_Initialize();
  2359     00A7  3180  20AB  3180   	fcall	_TMR1_Initialize
  2360     00AA                     l83:
  2361     00AA  0008               	return
  2362     00AB                     __end_of_SYSTEM_Initialize:
  2363                           
  2364                           	psect	text5
  2365     0188                     __ptext5:	
  2366 ;; *************** function _WDT_Initialize *****************
  2367 ;; Defined at:
  2368 ;;		line 73 in file "mcc_generated_files/mcc.c"
  2369 ;; Parameters:    Size  Location     Type
  2370 ;;		None
  2371 ;; Auto vars:     Size  Location     Type
  2372 ;;		None
  2373 ;; Return value:  Size  Location     Type
  2374 ;;                  1    wreg      void 
  2375 ;; Registers used:
  2376 ;;		wreg
  2377 ;; Tracked objects:
  2378 ;;		On entry : 0/0
  2379 ;;		On exit  : 0/0
  2380 ;;		Unchanged: 0/0
  2381 ;; Data sizes:     COMMON   BANK0   BANK1
  2382 ;;      Params:         0       0       0
  2383 ;;      Locals:         0       0       0
  2384 ;;      Temps:          0       0       0
  2385 ;;      Totals:         0       0       0
  2386 ;;Total ram usage:        0 bytes
  2387 ;; Hardware stack levels used: 1
  2388 ;; Hardware stack levels required when called: 4
  2389 ;; This function calls:
  2390 ;;		Nothing
  2391 ;; This function is called by:
  2392 ;;		_SYSTEM_Initialize
  2393 ;; This function uses a non-reentrant model
  2394 ;;
  2395                           
  2396     0188                     _WDT_Initialize:	
  2397                           ;psect for function _WDT_Initialize
  2398                           
  2399     0188                     l1024:	
  2400                           ;incstack = 0
  2401                           ; Regs used in _WDT_Initialize: [wreg]
  2402                           
  2403                           
  2404                           ;mcc_generated_files/mcc.c: 76:     WDTCON = 0x16;
  2405     0188  3016               	movlw	22
  2406     0189  0021               	movlb	1	; select bank1
  2407     018A  0097               	movwf	23	;volatile
  2408     018B                     l89:
  2409     018B  0008               	return
  2410     018C                     __end_of_WDT_Initialize:
  2411                           
  2412                           	psect	text6
  2413     016F                     __ptext6:	
  2414 ;; *************** function _TMR2_Initialize *****************
  2415 ;; Defined at:
  2416 ;;		line 62 in file "mcc_generated_files/tmr2.c"
  2417 ;; Parameters:    Size  Location     Type
  2418 ;;		None
  2419 ;; Auto vars:     Size  Location     Type
  2420 ;;		None
  2421 ;; Return value:  Size  Location     Type
  2422 ;;                  1    wreg      void 
  2423 ;; Registers used:
  2424 ;;		wreg, status,2
  2425 ;; Tracked objects:
  2426 ;;		On entry : 0/0
  2427 ;;		On exit  : 0/0
  2428 ;;		Unchanged: 0/0
  2429 ;; Data sizes:     COMMON   BANK0   BANK1
  2430 ;;      Params:         0       0       0
  2431 ;;      Locals:         0       0       0
  2432 ;;      Temps:          0       0       0
  2433 ;;      Totals:         0       0       0
  2434 ;;Total ram usage:        0 bytes
  2435 ;; Hardware stack levels used: 1
  2436 ;; Hardware stack levels required when called: 4
  2437 ;; This function calls:
  2438 ;;		Nothing
  2439 ;; This function is called by:
  2440 ;;		_SYSTEM_Initialize
  2441 ;; This function uses a non-reentrant model
  2442 ;;
  2443                           
  2444     016F                     _TMR2_Initialize:	
  2445                           ;psect for function _TMR2_Initialize
  2446                           
  2447     016F                     l1010:	
  2448                           ;incstack = 0
  2449                           ; Regs used in _TMR2_Initialize: [wreg+status,2]
  2450                           
  2451                           
  2452                           ;mcc_generated_files/tmr2.c: 67:     PR2 = 0xF9;
  2453     016F  30F9               	movlw	249
  2454     0170  0020               	movlb	0	; select bank0
  2455     0171  009B               	movwf	27	;volatile
  2456     0172                     l1012:
  2457                           
  2458                           ;mcc_generated_files/tmr2.c: 70:     TMR2 = 0x00;
  2459     0172  019A               	clrf	26	;volatile
  2460     0173                     l1014:
  2461                           
  2462                           ;mcc_generated_files/tmr2.c: 73:     PIR1bits.TMR2IF = 0;
  2463     0173  1091               	bcf	17,1	;volatile
  2464     0174                     l1016:
  2465                           
  2466                           ;mcc_generated_files/tmr2.c: 76:     T2CON = 0x06;
  2467     0174  3006               	movlw	6
  2468     0175  009C               	movwf	28	;volatile
  2469     0176                     l37:
  2470     0176  0008               	return
  2471     0177                     __end_of_TMR2_Initialize:
  2472                           
  2473                           	psect	text7
  2474     00AB                     __ptext7:	
  2475 ;; *************** function _TMR1_Initialize *****************
  2476 ;; Defined at:
  2477 ;;		line 64 in file "mcc_generated_files/tmr1.c"
  2478 ;; Parameters:    Size  Location     Type
  2479 ;;		None
  2480 ;; Auto vars:     Size  Location     Type
  2481 ;;		None
  2482 ;; Return value:  Size  Location     Type
  2483 ;;                  1    wreg      void 
  2484 ;; Registers used:
  2485 ;;		wreg, status,2, status,0, pclath, cstack
  2486 ;; Tracked objects:
  2487 ;;		On entry : 0/0
  2488 ;;		On exit  : 0/0
  2489 ;;		Unchanged: 0/0
  2490 ;; Data sizes:     COMMON   BANK0   BANK1
  2491 ;;      Params:         0       0       0
  2492 ;;      Locals:         0       0       0
  2493 ;;      Temps:          0       0       0
  2494 ;;      Totals:         0       0       0
  2495 ;;Total ram usage:        0 bytes
  2496 ;; Hardware stack levels used: 1
  2497 ;; Hardware stack levels required when called: 5
  2498 ;; This function calls:
  2499 ;;		_TMR1_SetInterruptHandler
  2500 ;; This function is called by:
  2501 ;;		_SYSTEM_Initialize
  2502 ;; This function uses a non-reentrant model
  2503 ;;
  2504                           
  2505     00AB                     _TMR1_Initialize:	
  2506                           ;psect for function _TMR1_Initialize
  2507                           
  2508     00AB                     l1420:	
  2509                           ;incstack = 0
  2510                           ; Regs used in _TMR1_Initialize: [wreg+status,2+status,0+pclath+cstack]
  2511                           
  2512                           
  2513                           ;mcc_generated_files/tmr1.c: 69:     T1GCON = 0x00;
  2514     00AB  0020               	movlb	0	; select bank0
  2515     00AC  0199               	clrf	25	;volatile
  2516     00AD                     l1422:
  2517                           
  2518                           ;mcc_generated_files/tmr1.c: 72:     TMR1H = 0xC1;
  2519     00AD  30C1               	movlw	193
  2520     00AE  0097               	movwf	23	;volatile
  2521     00AF                     l1424:
  2522                           
  2523                           ;mcc_generated_files/tmr1.c: 75:     TMR1L = 0x80;
  2524     00AF  3080               	movlw	128
  2525     00B0  0096               	movwf	22	;volatile
  2526     00B1                     l1426:
  2527                           
  2528                           ;mcc_generated_files/tmr1.c: 78:     PIR1bits.TMR1IF = 0;
  2529     00B1  1011               	bcf	17,0	;volatile
  2530     00B2                     l1428:
  2531                           
  2532                           ;mcc_generated_files/tmr1.c: 81:     timer1ReloadVal=(uint16_t)((TMR1H << 8) | TMR1L);
  2533     00B2  0817               	movf	23,w	;volatile
  2534     00B3  00F9               	movwf	_timer1ReloadVal+1	;volatile
  2535     00B4  0816               	movf	22,w	;volatile
  2536     00B5  00F8               	movwf	_timer1ReloadVal	;volatile
  2537     00B6                     l1430:
  2538                           
  2539                           ;mcc_generated_files/tmr1.c: 84:     PIE1bits.TMR1IE = 1;
  2540     00B6  0021               	movlb	1	; select bank1
  2541     00B7  1411               	bsf	17,0	;volatile
  2542     00B8                     l1432:
  2543                           
  2544                           ;mcc_generated_files/tmr1.c: 87:     TMR1_SetInterruptHandler(TMR1_DefaultInterruptHandl
      +                          er);
  2545     00B8  308F               	movlw	low _TMR1_DefaultInterruptHandler
  2546     00B9  0020               	movlb	0	; select bank0
  2547     00BA  00AA               	movwf	TMR1_SetInterruptHandler@InterruptHandler
  2548     00BB  3001               	movlw	high _TMR1_DefaultInterruptHandler
  2549     00BC  00AB               	movwf	TMR1_SetInterruptHandler@InterruptHandler+1
  2550     00BD  3181  217E  3180   	fcall	_TMR1_SetInterruptHandler
  2551     00C0                     l1434:
  2552                           
  2553                           ;mcc_generated_files/tmr1.c: 90:     T1CON = 0x41;
  2554     00C0  3041               	movlw	65
  2555     00C1  0020               	movlb	0	; select bank0
  2556     00C2  0098               	movwf	24	;volatile
  2557     00C3                     l118:
  2558     00C3  0008               	return
  2559     00C4                     __end_of_TMR1_Initialize:
  2560                           
  2561                           	psect	text8
  2562     017E                     __ptext8:	
  2563 ;; *************** function _TMR1_SetInterruptHandler *****************
  2564 ;; Defined at:
  2565 ;;		line 178 in file "mcc_generated_files/tmr1.c"
  2566 ;; Parameters:    Size  Location     Type
  2567 ;;  InterruptHan    2    0[BANK0 ] PTR FTN()void 
  2568 ;;		 -> msTick(1), TMR1_DefaultInterruptHandler(1), 
  2569 ;; Auto vars:     Size  Location     Type
  2570 ;;		None
  2571 ;; Return value:  Size  Location     Type
  2572 ;;                  1    wreg      void 
  2573 ;; Registers used:
  2574 ;;		wreg
  2575 ;; Tracked objects:
  2576 ;;		On entry : 0/0
  2577 ;;		On exit  : 0/0
  2578 ;;		Unchanged: 0/0
  2579 ;; Data sizes:     COMMON   BANK0   BANK1
  2580 ;;      Params:         0       2       0
  2581 ;;      Locals:         0       0       0
  2582 ;;      Temps:          0       0       0
  2583 ;;      Totals:         0       2       0
  2584 ;;Total ram usage:        2 bytes
  2585 ;; Hardware stack levels used: 1
  2586 ;; Hardware stack levels required when called: 4
  2587 ;; This function calls:
  2588 ;;		Nothing
  2589 ;; This function is called by:
  2590 ;;		_TMR1_Initialize
  2591 ;;		_appInit
  2592 ;; This function uses a non-reentrant model
  2593 ;;
  2594                           
  2595     017E                     _TMR1_SetInterruptHandler:	
  2596                           ;psect for function _TMR1_SetInterruptHandler
  2597                           
  2598     017E                     l1418:	
  2599                           ;incstack = 0
  2600                           ; Regs used in _TMR1_SetInterruptHandler: [wreg]
  2601                           
  2602                           
  2603                           ;mcc_generated_files/tmr1.c: 179:     TMR1_InterruptHandler = InterruptHandler;
  2604     017E  0020               	movlb	0	; select bank0
  2605     017F  082B               	movf	TMR1_SetInterruptHandler@InterruptHandler+1,w
  2606     0180  00A9               	movwf	_TMR1_InterruptHandler+1
  2607     0181  082A               	movf	TMR1_SetInterruptHandler@InterruptHandler,w
  2608     0182  00A8               	movwf	_TMR1_InterruptHandler
  2609     0183                     l151:
  2610     0183  0008               	return
  2611     0184                     __end_of_TMR1_SetInterruptHandler:
  2612                           
  2613                           	psect	text9
  2614     00F5                     __ptext9:	
  2615 ;; *************** function _PWM3_Initialize *****************
  2616 ;; Defined at:
  2617 ;;		line 58 in file "mcc_generated_files/pwm3.c"
  2618 ;; Parameters:    Size  Location     Type
  2619 ;;		None
  2620 ;; Auto vars:     Size  Location     Type
  2621 ;;		None
  2622 ;; Return value:  Size  Location     Type
  2623 ;;                  1    wreg      void 
  2624 ;; Registers used:
  2625 ;;		wreg, status,2
  2626 ;; Tracked objects:
  2627 ;;		On entry : 0/0
  2628 ;;		On exit  : 0/0
  2629 ;;		Unchanged: 0/0
  2630 ;; Data sizes:     COMMON   BANK0   BANK1
  2631 ;;      Params:         0       0       0
  2632 ;;      Locals:         0       0       0
  2633 ;;      Temps:          0       0       0
  2634 ;;      Totals:         0       0       0
  2635 ;;Total ram usage:        0 bytes
  2636 ;; Hardware stack levels used: 1
  2637 ;; Hardware stack levels required when called: 4
  2638 ;; This function calls:
  2639 ;;		Nothing
  2640 ;; This function is called by:
  2641 ;;		_SYSTEM_Initialize
  2642 ;; This function uses a non-reentrant model
  2643 ;;
  2644                           
  2645     00F5                     _PWM3_Initialize:	
  2646                           ;psect for function _PWM3_Initialize
  2647                           
  2648     00F5                     l1062:	
  2649                           ;incstack = 0
  2650                           ; Regs used in _PWM3_Initialize: [wreg+status,2]
  2651                           
  2652                           
  2653                           ;mcc_generated_files/pwm3.c: 63:     PWM3INTE = 0x00;
  2654     00F5  003B               	movlb	27	; select bank27
  2655     00F6  01BC               	clrf	60	;volatile
  2656                           
  2657                           ;mcc_generated_files/pwm3.c: 66:     PWM3INTF = 0x00;
  2658     00F7  01BD               	clrf	61	;volatile
  2659                           
  2660                           ;mcc_generated_files/pwm3.c: 69:     PWM3CLKCON = 0x00;
  2661     00F8  01BE               	clrf	62	;volatile
  2662                           
  2663                           ;mcc_generated_files/pwm3.c: 72:     PWM3LDCON = 0x00;
  2664     00F9  01BF               	clrf	63	;volatile
  2665                           
  2666                           ;mcc_generated_files/pwm3.c: 75:     PWM3OFCON = 0x00;
  2667     00FA  01C0               	clrf	64	;volatile
  2668                           
  2669                           ;mcc_generated_files/pwm3.c: 78:     PWM3PHH = 0x00;
  2670     00FB  01B2               	clrf	50	;volatile
  2671                           
  2672                           ;mcc_generated_files/pwm3.c: 81:     PWM3PHL = 0x00;
  2673     00FC  01B1               	clrf	49	;volatile
  2674                           
  2675                           ;mcc_generated_files/pwm3.c: 84:     PWM3DCH = 0x00;
  2676     00FD  01B4               	clrf	52	;volatile
  2677                           
  2678                           ;mcc_generated_files/pwm3.c: 87:     PWM3DCL = 0x00;
  2679     00FE  01B3               	clrf	51	;volatile
  2680                           
  2681                           ;mcc_generated_files/pwm3.c: 90:     PWM3PRH = 0x00;
  2682     00FF  01B6               	clrf	54	;volatile
  2683     0100                     l1064:
  2684                           
  2685                           ;mcc_generated_files/pwm3.c: 93:     PWM3PRL = 0x1F;
  2686     0100  301F               	movlw	31
  2687     0101  00B5               	movwf	53	;volatile
  2688     0102                     l1066:
  2689                           
  2690                           ;mcc_generated_files/pwm3.c: 96:     PWM3OFH = 0x00;
  2691     0102  01B8               	clrf	56	;volatile
  2692                           
  2693                           ;mcc_generated_files/pwm3.c: 99:     PWM3OFL = 0x1F;
  2694     0103  301F               	movlw	31
  2695     0104  00B7               	movwf	55	;volatile
  2696     0105                     l1068:
  2697                           
  2698                           ;mcc_generated_files/pwm3.c: 102:     PWM3TMRH = 0x00;
  2699     0105  01BA               	clrf	58	;volatile
  2700     0106                     l1070:
  2701                           
  2702                           ;mcc_generated_files/pwm3.c: 105:     PWM3TMRL = 0x00;
  2703     0106  01B9               	clrf	57	;volatile
  2704                           
  2705                           ;mcc_generated_files/pwm3.c: 108:     PWM3CON = 0x80;
  2706     0107  3080               	movlw	128
  2707     0108  00BB               	movwf	59	;volatile
  2708     0109                     l292:
  2709     0109  0008               	return
  2710     010A                     __end_of_PWM3_Initialize:
  2711                           
  2712                           	psect	text10
  2713     010A                     __ptext10:	
  2714 ;; *************** function _PWM2_Initialize *****************
  2715 ;; Defined at:
  2716 ;;		line 58 in file "mcc_generated_files/pwm2.c"
  2717 ;; Parameters:    Size  Location     Type
  2718 ;;		None
  2719 ;; Auto vars:     Size  Location     Type
  2720 ;;		None
  2721 ;; Return value:  Size  Location     Type
  2722 ;;                  1    wreg      void 
  2723 ;; Registers used:
  2724 ;;		wreg, status,2
  2725 ;; Tracked objects:
  2726 ;;		On entry : 0/0
  2727 ;;		On exit  : 0/0
  2728 ;;		Unchanged: 0/0
  2729 ;; Data sizes:     COMMON   BANK0   BANK1
  2730 ;;      Params:         0       0       0
  2731 ;;      Locals:         0       0       0
  2732 ;;      Temps:          0       0       0
  2733 ;;      Totals:         0       0       0
  2734 ;;Total ram usage:        0 bytes
  2735 ;; Hardware stack levels used: 1
  2736 ;; Hardware stack levels required when called: 4
  2737 ;; This function calls:
  2738 ;;		Nothing
  2739 ;; This function is called by:
  2740 ;;		_SYSTEM_Initialize
  2741 ;; This function uses a non-reentrant model
  2742 ;;
  2743                           
  2744     010A                     _PWM2_Initialize:	
  2745                           ;psect for function _PWM2_Initialize
  2746                           
  2747     010A                     l1052:	
  2748                           ;incstack = 0
  2749                           ; Regs used in _PWM2_Initialize: [wreg+status,2]
  2750                           
  2751                           
  2752                           ;mcc_generated_files/pwm2.c: 63:     PWM2INTE = 0x00;
  2753     010A  003B               	movlb	27	; select bank27
  2754     010B  01AC               	clrf	44	;volatile
  2755                           
  2756                           ;mcc_generated_files/pwm2.c: 66:     PWM2INTF = 0x00;
  2757     010C  01AD               	clrf	45	;volatile
  2758                           
  2759                           ;mcc_generated_files/pwm2.c: 69:     PWM2CLKCON = 0x00;
  2760     010D  01AE               	clrf	46	;volatile
  2761                           
  2762                           ;mcc_generated_files/pwm2.c: 72:     PWM2LDCON = 0x00;
  2763     010E  01AF               	clrf	47	;volatile
  2764                           
  2765                           ;mcc_generated_files/pwm2.c: 75:     PWM2OFCON = 0x00;
  2766     010F  01B0               	clrf	48	;volatile
  2767                           
  2768                           ;mcc_generated_files/pwm2.c: 78:     PWM2PHH = 0x00;
  2769     0110  01A2               	clrf	34	;volatile
  2770                           
  2771                           ;mcc_generated_files/pwm2.c: 81:     PWM2PHL = 0x00;
  2772     0111  01A1               	clrf	33	;volatile
  2773                           
  2774                           ;mcc_generated_files/pwm2.c: 84:     PWM2DCH = 0x00;
  2775     0112  01A4               	clrf	36	;volatile
  2776                           
  2777                           ;mcc_generated_files/pwm2.c: 87:     PWM2DCL = 0x00;
  2778     0113  01A3               	clrf	35	;volatile
  2779                           
  2780                           ;mcc_generated_files/pwm2.c: 90:     PWM2PRH = 0x00;
  2781     0114  01A6               	clrf	38	;volatile
  2782     0115                     l1054:
  2783                           
  2784                           ;mcc_generated_files/pwm2.c: 93:     PWM2PRL = 0x1F;
  2785     0115  301F               	movlw	31
  2786     0116  00A5               	movwf	37	;volatile
  2787     0117                     l1056:
  2788                           
  2789                           ;mcc_generated_files/pwm2.c: 96:     PWM2OFH = 0x00;
  2790     0117  01A8               	clrf	40	;volatile
  2791                           
  2792                           ;mcc_generated_files/pwm2.c: 99:     PWM2OFL = 0x1F;
  2793     0118  301F               	movlw	31
  2794     0119  00A7               	movwf	39	;volatile
  2795     011A                     l1058:
  2796                           
  2797                           ;mcc_generated_files/pwm2.c: 102:     PWM2TMRH = 0x00;
  2798     011A  01AA               	clrf	42	;volatile
  2799     011B                     l1060:
  2800                           
  2801                           ;mcc_generated_files/pwm2.c: 105:     PWM2TMRL = 0x00;
  2802     011B  01A9               	clrf	41	;volatile
  2803                           
  2804                           ;mcc_generated_files/pwm2.c: 108:     PWM2CON = 0x80;
  2805     011C  3080               	movlw	128
  2806     011D  00AB               	movwf	43	;volatile
  2807     011E                     l427:
  2808     011E  0008               	return
  2809     011F                     __end_of_PWM2_Initialize:
  2810                           
  2811                           	psect	text11
  2812     00C4                     __ptext11:	
  2813 ;; *************** function _PWM1_Initialize *****************
  2814 ;; Defined at:
  2815 ;;		line 58 in file "mcc_generated_files/pwm1.c"
  2816 ;; Parameters:    Size  Location     Type
  2817 ;;		None
  2818 ;; Auto vars:     Size  Location     Type
  2819 ;;		None
  2820 ;; Return value:  Size  Location     Type
  2821 ;;                  1    wreg      void 
  2822 ;; Registers used:
  2823 ;;		wreg, status,2
  2824 ;; Tracked objects:
  2825 ;;		On entry : 0/0
  2826 ;;		On exit  : 0/0
  2827 ;;		Unchanged: 0/0
  2828 ;; Data sizes:     COMMON   BANK0   BANK1
  2829 ;;      Params:         0       0       0
  2830 ;;      Locals:         0       0       0
  2831 ;;      Temps:          0       0       0
  2832 ;;      Totals:         0       0       0
  2833 ;;Total ram usage:        0 bytes
  2834 ;; Hardware stack levels used: 1
  2835 ;; Hardware stack levels required when called: 4
  2836 ;; This function calls:
  2837 ;;		Nothing
  2838 ;; This function is called by:
  2839 ;;		_SYSTEM_Initialize
  2840 ;; This function uses a non-reentrant model
  2841 ;;
  2842                           
  2843     00C4                     _PWM1_Initialize:	
  2844                           ;psect for function _PWM1_Initialize
  2845                           
  2846     00C4                     l1026:	
  2847                           ;incstack = 0
  2848                           ; Regs used in _PWM1_Initialize: [wreg+status,2]
  2849                           
  2850                           
  2851                           ;mcc_generated_files/pwm1.c: 63:     PWM1INTE = 0x00;
  2852     00C4  003B               	movlb	27	; select bank27
  2853     00C5  019C               	clrf	28	;volatile
  2854                           
  2855                           ;mcc_generated_files/pwm1.c: 66:     PWM1INTF = 0x00;
  2856     00C6  019D               	clrf	29	;volatile
  2857     00C7                     l1028:
  2858                           
  2859                           ;mcc_generated_files/pwm1.c: 69:     PWM1CLKCON = 0x21;
  2860     00C7  3021               	movlw	33
  2861     00C8  009E               	movwf	30	;volatile
  2862     00C9                     l1030:
  2863                           
  2864                           ;mcc_generated_files/pwm1.c: 72:     PWM1LDCON = 0x00;
  2865     00C9  019F               	clrf	31	;volatile
  2866     00CA                     l1032:
  2867                           
  2868                           ;mcc_generated_files/pwm1.c: 75:     PWM1OFCON = 0x00;
  2869     00CA  01A0               	clrf	32	;volatile
  2870     00CB                     l1034:
  2871                           
  2872                           ;mcc_generated_files/pwm1.c: 78:     PWM1PHH = 0x00;
  2873     00CB  0192               	clrf	18	;volatile
  2874     00CC                     l1036:
  2875                           
  2876                           ;mcc_generated_files/pwm1.c: 81:     PWM1PHL = 0x00;
  2877     00CC  0191               	clrf	17	;volatile
  2878     00CD                     l1038:
  2879                           
  2880                           ;mcc_generated_files/pwm1.c: 84:     PWM1DCH = 0x61;
  2881     00CD  3061               	movlw	97
  2882     00CE  0094               	movwf	20	;volatile
  2883     00CF                     l1040:
  2884                           
  2885                           ;mcc_generated_files/pwm1.c: 87:     PWM1DCL = 0xA8;
  2886     00CF  30A8               	movlw	168
  2887     00D0  0093               	movwf	19	;volatile
  2888     00D1                     l1042:
  2889                           
  2890                           ;mcc_generated_files/pwm1.c: 90:     PWM1PRH = 0xC3;
  2891     00D1  30C3               	movlw	195
  2892     00D2  0096               	movwf	22	;volatile
  2893     00D3                     l1044:
  2894                           
  2895                           ;mcc_generated_files/pwm1.c: 93:     PWM1PRL = 0x50;
  2896     00D3  3050               	movlw	80
  2897     00D4  0095               	movwf	21	;volatile
  2898     00D5                     l1046:
  2899                           
  2900                           ;mcc_generated_files/pwm1.c: 96:     PWM1OFH = 0x00;
  2901     00D5  0198               	clrf	24	;volatile
  2902                           
  2903                           ;mcc_generated_files/pwm1.c: 99:     PWM1OFL = 0x07;
  2904     00D6  3007               	movlw	7
  2905     00D7  0097               	movwf	23	;volatile
  2906     00D8                     l1048:
  2907                           
  2908                           ;mcc_generated_files/pwm1.c: 102:     PWM1TMRH = 0x00;
  2909     00D8  019A               	clrf	26	;volatile
  2910     00D9                     l1050:
  2911                           
  2912                           ;mcc_generated_files/pwm1.c: 105:     PWM1TMRL = 0x00;
  2913     00D9  0199               	clrf	25	;volatile
  2914                           
  2915                           ;mcc_generated_files/pwm1.c: 108:     PWM1CON = 0x80;
  2916     00DA  3080               	movlw	128
  2917     00DB  009B               	movwf	27	;volatile
  2918     00DC                     l212:
  2919     00DC  0008               	return
  2920     00DD                     __end_of_PWM1_Initialize:
  2921                           
  2922                           	psect	text12
  2923     00DD                     __ptext12:	
  2924 ;; *************** function _PIN_MANAGER_Initialize *****************
  2925 ;; Defined at:
  2926 ;;		line 55 in file "mcc_generated_files/pin_manager.c"
  2927 ;; Parameters:    Size  Location     Type
  2928 ;;		None
  2929 ;; Auto vars:     Size  Location     Type
  2930 ;;		None
  2931 ;; Return value:  Size  Location     Type
  2932 ;;                  1    wreg      void 
  2933 ;; Registers used:
  2934 ;;		wreg, status,2
  2935 ;; Tracked objects:
  2936 ;;		On entry : 0/0
  2937 ;;		On exit  : 0/0
  2938 ;;		Unchanged: 0/0
  2939 ;; Data sizes:     COMMON   BANK0   BANK1
  2940 ;;      Params:         0       0       0
  2941 ;;      Locals:         0       0       0
  2942 ;;      Temps:          0       0       0
  2943 ;;      Totals:         0       0       0
  2944 ;;Total ram usage:        0 bytes
  2945 ;; Hardware stack levels used: 1
  2946 ;; Hardware stack levels required when called: 4
  2947 ;; This function calls:
  2948 ;;		Nothing
  2949 ;; This function is called by:
  2950 ;;		_SYSTEM_Initialize
  2951 ;; This function uses a non-reentrant model
  2952 ;;
  2953                           
  2954     00DD                     _PIN_MANAGER_Initialize:	
  2955                           ;psect for function _PIN_MANAGER_Initialize
  2956                           
  2957     00DD                     l996:	
  2958                           ;incstack = 0
  2959                           ; Regs used in _PIN_MANAGER_Initialize: [wreg+status,2]
  2960                           
  2961                           
  2962                           ;mcc_generated_files/pin_manager.c: 60:     LATA = 0x00;
  2963     00DD  0022               	movlb	2	; select bank2
  2964     00DE  018C               	clrf	12	;volatile
  2965     00DF                     l998:
  2966                           
  2967                           ;mcc_generated_files/pin_manager.c: 65:     TRISA = 0x0B;
  2968     00DF  300B               	movlw	11
  2969     00E0  0021               	movlb	1	; select bank1
  2970     00E1  008C               	movwf	12	;volatile
  2971     00E2                     l1000:
  2972                           
  2973                           ;mcc_generated_files/pin_manager.c: 70:     ANSELA = 0x16;
  2974     00E2  3016               	movlw	22
  2975     00E3  0023               	movlb	3	; select bank3
  2976     00E4  008C               	movwf	12	;volatile
  2977                           
  2978                           ;mcc_generated_files/pin_manager.c: 75:     WPUA = 0x00;
  2979     00E5  0024               	movlb	4	; select bank4
  2980     00E6  018C               	clrf	12	;volatile
  2981     00E7                     l1002:
  2982                           
  2983                           ;mcc_generated_files/pin_manager.c: 76:     OPTION_REGbits.nWPUEN = 1;
  2984     00E7  0021               	movlb	1	; select bank1
  2985     00E8  1795               	bsf	21,7	;volatile
  2986                           
  2987                           ;mcc_generated_files/pin_manager.c: 81:     ODCONA = 0x00;
  2988     00E9  0025               	movlb	5	; select bank5
  2989     00EA  018C               	clrf	12	;volatile
  2990     00EB                     l1004:
  2991                           
  2992                           ;mcc_generated_files/pin_manager.c: 86:     SLRCONA = 0x37;
  2993     00EB  3037               	movlw	55
  2994     00EC  0026               	movlb	6	; select bank6
  2995     00ED  008C               	movwf	12	;volatile
  2996     00EE                     l1006:
  2997                           
  2998                           ;mcc_generated_files/pin_manager.c: 91:     INLVLA = 0x3F;
  2999     00EE  303F               	movlw	63
  3000     00EF  0027               	movlb	7	; select bank7
  3001     00F0  008C               	movwf	12	;volatile
  3002     00F1                     l1008:
  3003                           
  3004                           ;mcc_generated_files/pin_manager.c: 96:     APFCON = 0x03;
  3005     00F1  3003               	movlw	3
  3006     00F2  0022               	movlb	2	; select bank2
  3007     00F3  009D               	movwf	29	;volatile
  3008     00F4                     l21:
  3009     00F4  0008               	return
  3010     00F5                     __end_of_PIN_MANAGER_Initialize:
  3011                           
  3012                           	psect	text13
  3013     0177                     __ptext13:	
  3014 ;; *************** function _OSCILLATOR_Initialize *****************
  3015 ;; Defined at:
  3016 ;;		line 63 in file "mcc_generated_files/mcc.c"
  3017 ;; Parameters:    Size  Location     Type
  3018 ;;		None
  3019 ;; Auto vars:     Size  Location     Type
  3020 ;;		None
  3021 ;; Return value:  Size  Location     Type
  3022 ;;                  1    wreg      void 
  3023 ;; Registers used:
  3024 ;;		wreg, status,2
  3025 ;; Tracked objects:
  3026 ;;		On entry : 0/0
  3027 ;;		On exit  : 0/0
  3028 ;;		Unchanged: 0/0
  3029 ;; Data sizes:     COMMON   BANK0   BANK1
  3030 ;;      Params:         0       0       0
  3031 ;;      Locals:         0       0       0
  3032 ;;      Temps:          0       0       0
  3033 ;;      Totals:         0       0       0
  3034 ;;Total ram usage:        0 bytes
  3035 ;; Hardware stack levels used: 1
  3036 ;; Hardware stack levels required when called: 4
  3037 ;; This function calls:
  3038 ;;		Nothing
  3039 ;; This function is called by:
  3040 ;;		_SYSTEM_Initialize
  3041 ;; This function uses a non-reentrant model
  3042 ;;
  3043                           
  3044     0177                     _OSCILLATOR_Initialize:	
  3045                           ;psect for function _OSCILLATOR_Initialize
  3046                           
  3047     0177                     l1018:	
  3048                           ;incstack = 0
  3049                           ; Regs used in _OSCILLATOR_Initialize: [wreg+status,2]
  3050                           
  3051                           
  3052                           ;mcc_generated_files/mcc.c: 66:     OSCCON = 0x78;
  3053     0177  3078               	movlw	120
  3054     0178  0021               	movlb	1	; select bank1
  3055     0179  0099               	movwf	25	;volatile
  3056     017A                     l1020:
  3057                           
  3058                           ;mcc_generated_files/mcc.c: 68:     OSCTUNE = 0x00;
  3059     017A  0198               	clrf	24	;volatile
  3060     017B                     l1022:
  3061                           
  3062                           ;mcc_generated_files/mcc.c: 70:     BORCON = 0x00;
  3063     017B  0022               	movlb	2	; select bank2
  3064     017C  0196               	clrf	22	;volatile
  3065     017D                     l86:
  3066     017D  0008               	return
  3067     017E                     __end_of_OSCILLATOR_Initialize:
  3068                           
  3069                           	psect	intentry
  3070     0004                     __pintentry:	
  3071 ;; *************** function _INTERRUPT_InterruptManager *****************
  3072 ;; Defined at:
  3073 ;;		line 52 in file "mcc_generated_files/interrupt_manager.c"
  3074 ;; Parameters:    Size  Location     Type
  3075 ;;		None
  3076 ;; Auto vars:     Size  Location     Type
  3077 ;;		None
  3078 ;; Return value:  Size  Location     Type
  3079 ;;                  1    wreg      void 
  3080 ;; Registers used:
  3081 ;;		wreg, status,2, status,0, pclath, cstack
  3082 ;; Tracked objects:
  3083 ;;		On entry : 0/0
  3084 ;;		On exit  : 0/0
  3085 ;;		Unchanged: 0/0
  3086 ;; Data sizes:     COMMON   BANK0   BANK1
  3087 ;;      Params:         0       0       0
  3088 ;;      Locals:         0       0       0
  3089 ;;      Temps:          0       0       0
  3090 ;;      Totals:         0       0       0
  3091 ;;Total ram usage:        0 bytes
  3092 ;; Hardware stack levels used: 1
  3093 ;; Hardware stack levels required when called: 3
  3094 ;; This function calls:
  3095 ;;		_TMR1_ISR
  3096 ;; This function is called by:
  3097 ;;		Interrupt level 1
  3098 ;; This function uses a non-reentrant model
  3099 ;;
  3100                           
  3101     0004                     _INTERRUPT_InterruptManager:
  3102                           
  3103                           ;incstack = 0
  3104     0004  147E               	bsf	int$flags,0	;set compiler interrupt flag (level 1)
  3105                           
  3106                           ; Regs used in _INTERRUPT_InterruptManager: [wreg+status,2+status,0+pclath+cstack]
  3107     0005  3180               	pagesel	$
  3108     0006                     i1l1398:
  3109                           
  3110                           ;mcc_generated_files/interrupt_manager.c: 55:     if(INTCONbits.PEIE == 1)
  3111     0006  1F0B               	btfss	11,6	;volatile
  3112     0007  2809               	goto	u21_21
  3113     0008  280A               	goto	u21_20
  3114     0009                     u21_21:
  3115     0009  2817               	goto	i1l171
  3116     000A                     u21_20:
  3117     000A                     i1l1400:
  3118                           
  3119                           ;mcc_generated_files/interrupt_manager.c: 56:     {;mcc_generated_files/interrupt_manage
      +                          r.c: 57:         if(PIE1bits.TMR1IE == 1 && PIR1bits.TMR1IF == 1)
  3120     000A  0021               	movlb	1	; select bank1
  3121     000B  1C11               	btfss	17,0	;volatile
  3122     000C  280E               	goto	u22_21
  3123     000D  280F               	goto	u22_20
  3124     000E                     u22_21:
  3125     000E  2817               	goto	i1l171
  3126     000F                     u22_20:
  3127     000F                     i1l1402:
  3128     000F  0020               	movlb	0	; select bank0
  3129     0010  1C11               	btfss	17,0	;volatile
  3130     0011  2813               	goto	u23_21
  3131     0012  2814               	goto	u23_20
  3132     0013                     u23_21:
  3133     0013  2817               	goto	i1l171
  3134     0014                     u23_20:
  3135     0014                     i1l1404:
  3136                           
  3137                           ;mcc_generated_files/interrupt_manager.c: 58:         {;mcc_generated_files/interrupt_ma
      +                          nager.c: 59:             TMR1_ISR();
  3138     0014  3181  2140  3180   	fcall	_TMR1_ISR
  3139     0017                     i1l171:	
  3140                           ;mcc_generated_files/interrupt_manager.c: 60:         }
  3141                           
  3142     0017  107E               	bcf	int$flags,0	;clear compiler interrupt flag (level 1)
  3143     0018  0009               	retfie
  3144     0019                     __end_of_INTERRUPT_InterruptManager:
  3145                           
  3146                           	psect	text15
  3147     0140                     __ptext15:	
  3148 ;; *************** function _TMR1_ISR *****************
  3149 ;; Defined at:
  3150 ;;		line 157 in file "mcc_generated_files/tmr1.c"
  3151 ;; Parameters:    Size  Location     Type
  3152 ;;		None
  3153 ;; Auto vars:     Size  Location     Type
  3154 ;;		None
  3155 ;; Return value:  Size  Location     Type
  3156 ;;                  1    wreg      void 
  3157 ;; Registers used:
  3158 ;;		wreg, status,2, status,0, pclath, cstack
  3159 ;; Tracked objects:
  3160 ;;		On entry : 0/0
  3161 ;;		On exit  : 0/0
  3162 ;;		Unchanged: 0/0
  3163 ;; Data sizes:     COMMON   BANK0   BANK1
  3164 ;;      Params:         0       0       0
  3165 ;;      Locals:         0       0       0
  3166 ;;      Temps:          0       0       0
  3167 ;;      Totals:         0       0       0
  3168 ;;Total ram usage:        0 bytes
  3169 ;; Hardware stack levels used: 1
  3170 ;; Hardware stack levels required when called: 2
  3171 ;; This function calls:
  3172 ;;		_TMR1_CallBack
  3173 ;;		_TMR1_WriteTimer
  3174 ;; This function is called by:
  3175 ;;		_INTERRUPT_InterruptManager
  3176 ;; This function uses a non-reentrant model
  3177 ;;
  3178                           
  3179     0140                     _TMR1_ISR:	
  3180                           ;psect for function _TMR1_ISR
  3181                           
  3182     0140                     i1l1368:	
  3183                           ;incstack = 0
  3184                           ; Regs used in _TMR1_ISR: [wreg+status,2+status,0+pclath+cstack]
  3185                           
  3186                           
  3187                           ;mcc_generated_files/tmr1.c: 161:     PIR1bits.TMR1IF = 0;
  3188     0140  0020               	movlb	0	; select bank0
  3189     0141  1011               	bcf	17,0	;volatile
  3190     0142                     i1l1370:
  3191                           
  3192                           ;mcc_generated_files/tmr1.c: 162:     TMR1_WriteTimer(timer1ReloadVal);
  3193     0142  0879               	movf	_timer1ReloadVal+1,w	;volatile
  3194     0143  00FB               	movwf	TMR1_WriteTimer@timerVal+1
  3195     0144  0878               	movf	_timer1ReloadVal,w	;volatile
  3196     0145  00FA               	movwf	TMR1_WriteTimer@timerVal
  3197     0146  3181  211F  3181   	fcall	_TMR1_WriteTimer
  3198                           
  3199                           ;mcc_generated_files/tmr1.c: 166:     TMR1_CallBack();
  3200     0149  3181  214D  3181   	fcall	_TMR1_CallBack
  3201     014C                     i1l144:
  3202     014C  0008               	return
  3203     014D                     __end_of_TMR1_ISR:
  3204                           
  3205                           	psect	text16
  3206     011F                     __ptext16:	
  3207 ;; *************** function _TMR1_WriteTimer *****************
  3208 ;; Defined at:
  3209 ;;		line 120 in file "mcc_generated_files/tmr1.c"
  3210 ;; Parameters:    Size  Location     Type
  3211 ;;  timerVal        2    0[COMMON] unsigned short 
  3212 ;; Auto vars:     Size  Location     Type
  3213 ;;		None
  3214 ;; Return value:  Size  Location     Type
  3215 ;;                  1    wreg      void 
  3216 ;; Registers used:
  3217 ;;		wreg, status,2
  3218 ;; Tracked objects:
  3219 ;;		On entry : 0/0
  3220 ;;		On exit  : 0/0
  3221 ;;		Unchanged: 0/0
  3222 ;; Data sizes:     COMMON   BANK0   BANK1
  3223 ;;      Params:         2       0       0
  3224 ;;      Locals:         0       0       0
  3225 ;;      Temps:          0       0       0
  3226 ;;      Totals:         2       0       0
  3227 ;;Total ram usage:        2 bytes
  3228 ;; Hardware stack levels used: 1
  3229 ;; This function calls:
  3230 ;;		Nothing
  3231 ;; This function is called by:
  3232 ;;		_TMR1_ISR
  3233 ;;		_TMR1_Reload
  3234 ;; This function uses a non-reentrant model
  3235 ;;
  3236                           
  3237     011F                     _TMR1_WriteTimer:	
  3238                           ;psect for function _TMR1_WriteTimer
  3239                           
  3240     011F                     i1l1348:	
  3241                           ;incstack = 0
  3242                           ; Regs used in _TMR1_WriteTimer: [wreg+status,2]
  3243                           
  3244                           
  3245                           ;mcc_generated_files/tmr1.c: 120: void TMR1_WriteTimer(uint16_t timerVal);mcc_generated_
      +                          files/tmr1.c: 121: {;mcc_generated_files/tmr1.c: 122:     if (T1CONbits.nT1SYNC == 1)
  3246     011F  0020               	movlb	0	; select bank0
  3247     0120  1D18               	btfss	24,2	;volatile
  3248     0121  2923               	goto	u13_21
  3249     0122  2924               	goto	u13_20
  3250     0123                     u13_21:
  3251     0123  292B               	goto	i1l1358
  3252     0124                     u13_20:
  3253     0124                     i1l1350:
  3254                           
  3255                           ;mcc_generated_files/tmr1.c: 123:     {;mcc_generated_files/tmr1.c: 125:         T1CONbi
      +                          ts.TMR1ON = 0;
  3256     0124  1018               	bcf	24,0	;volatile
  3257     0125                     i1l1352:
  3258                           
  3259                           ;mcc_generated_files/tmr1.c: 128:         TMR1H = (uint8_t)(timerVal >> 8);
  3260     0125  087B               	movf	TMR1_WriteTimer@timerVal+1,w
  3261     0126  0097               	movwf	23	;volatile
  3262     0127                     i1l1354:
  3263                           
  3264                           ;mcc_generated_files/tmr1.c: 129:         TMR1L = (uint8_t)timerVal;
  3265     0127  087A               	movf	TMR1_WriteTimer@timerVal,w
  3266     0128  0096               	movwf	22	;volatile
  3267     0129                     i1l1356:
  3268                           
  3269                           ;mcc_generated_files/tmr1.c: 132:         T1CONbits.TMR1ON =1;
  3270     0129  1418               	bsf	24,0	;volatile
  3271                           
  3272                           ;mcc_generated_files/tmr1.c: 133:     }
  3273     012A  292F               	goto	i1l132
  3274     012B                     i1l1358:
  3275                           
  3276                           ;mcc_generated_files/tmr1.c: 135:     {;mcc_generated_files/tmr1.c: 137:         TMR1H =
      +                           (uint8_t)(timerVal >> 8);
  3277     012B  087B               	movf	TMR1_WriteTimer@timerVal+1,w
  3278     012C  0097               	movwf	23	;volatile
  3279     012D                     i1l1360:
  3280                           
  3281                           ;mcc_generated_files/tmr1.c: 138:         TMR1L = (uint8_t)timerVal;
  3282     012D  087A               	movf	TMR1_WriteTimer@timerVal,w
  3283     012E  0096               	movwf	22	;volatile
  3284     012F                     i1l132:
  3285     012F  0008               	return
  3286     0130                     __end_of_TMR1_WriteTimer:
  3287                           
  3288                           	psect	text17
  3289     014D                     __ptext17:	
  3290 ;; *************** function _TMR1_CallBack *****************
  3291 ;; Defined at:
  3292 ;;		line 169 in file "mcc_generated_files/tmr1.c"
  3293 ;; Parameters:    Size  Location     Type
  3294 ;;		None
  3295 ;; Auto vars:     Size  Location     Type
  3296 ;;		None
  3297 ;; Return value:  Size  Location     Type
  3298 ;;                  1    wreg      void 
  3299 ;; Registers used:
  3300 ;;		wreg, status,2, status,0, pclath, cstack
  3301 ;; Tracked objects:
  3302 ;;		On entry : 0/0
  3303 ;;		On exit  : 0/0
  3304 ;;		Unchanged: 0/0
  3305 ;; Data sizes:     COMMON   BANK0   BANK1
  3306 ;;      Params:         0       0       0
  3307 ;;      Locals:         0       0       0
  3308 ;;      Temps:          0       0       0
  3309 ;;      Totals:         0       0       0
  3310 ;;Total ram usage:        0 bytes
  3311 ;; Hardware stack levels used: 1
  3312 ;; Hardware stack levels required when called: 1
  3313 ;; This function calls:
  3314 ;;		Absolute function
  3315 ;;		_TMR1_DefaultInterruptHandler
  3316 ;;		_msTick
  3317 ;; This function is called by:
  3318 ;;		_TMR1_ISR
  3319 ;; This function uses a non-reentrant model
  3320 ;;
  3321                           
  3322     014D                     _TMR1_CallBack:	
  3323                           ;psect for function _TMR1_CallBack
  3324                           
  3325     014D                     i1l1362:	
  3326                           ;incstack = 0
  3327                           ; Regs used in _TMR1_CallBack: [wreg+status,2+status,0+pclath+cstack]
  3328                           
  3329                           
  3330                           ;mcc_generated_files/tmr1.c: 172:     if(TMR1_InterruptHandler)
  3331     014D  0020               	movlb	0	; select bank0
  3332     014E  0828               	movf	_TMR1_InterruptHandler,w
  3333     014F  0429               	iorwf	_TMR1_InterruptHandler+1,w
  3334     0150  1903               	btfsc	3,2
  3335     0151  2953               	goto	u14_21
  3336     0152  2954               	goto	u14_20
  3337     0153                     u14_21:
  3338     0153  2959               	goto	i1l148
  3339     0154                     u14_20:
  3340     0154                     i1l1364:
  3341                           
  3342                           ;mcc_generated_files/tmr1.c: 173:     {;mcc_generated_files/tmr1.c: 174:         TMR1_In
      +                          terruptHandler();
  3343     0154  0829               	movf	_TMR1_InterruptHandler+1,w
  3344     0155  008A               	movwf	10
  3345     0156  0828               	movf	_TMR1_InterruptHandler,w
  3346     0157  000A               	callw
  3347     0158  3181               	pagesel	$
  3348     0159                     i1l148:
  3349     0159  0008               	return
  3350     015A                     __end_of_TMR1_CallBack:
  3351                           
  3352                           	psect	text18
  3353     018F                     __ptext18:	
  3354 ;; *************** function _TMR1_DefaultInterruptHandler *****************
  3355 ;; Defined at:
  3356 ;;		line 182 in file "mcc_generated_files/tmr1.c"
  3357 ;; Parameters:    Size  Location     Type
  3358 ;;		None
  3359 ;; Auto vars:     Size  Location     Type
  3360 ;;		None
  3361 ;; Return value:  Size  Location     Type
  3362 ;;                  1    wreg      void 
  3363 ;; Registers used:
  3364 ;;		None
  3365 ;; Tracked objects:
  3366 ;;		On entry : 0/0
  3367 ;;		On exit  : 0/0
  3368 ;;		Unchanged: 0/0
  3369 ;; Data sizes:     COMMON   BANK0   BANK1
  3370 ;;      Params:         0       0       0
  3371 ;;      Locals:         0       0       0
  3372 ;;      Temps:          0       0       0
  3373 ;;      Totals:         0       0       0
  3374 ;;Total ram usage:        0 bytes
  3375 ;; Hardware stack levels used: 1
  3376 ;; This function calls:
  3377 ;;		Nothing
  3378 ;; This function is called by:
  3379 ;;		_TMR1_Initialize
  3380 ;;		_TMR1_CallBack
  3381 ;; This function uses a non-reentrant model
  3382 ;;
  3383                           
  3384     018F                     _TMR1_DefaultInterruptHandler:	
  3385                           ;psect for function _TMR1_DefaultInterruptHandler
  3386                           
  3387     018F                     i1l154:	
  3388                           ;incstack = 0
  3389                           ; Regs used in _TMR1_DefaultInterruptHandler: []
  3390                           
  3391     018F  0008               	return
  3392     0190                     __end_of_TMR1_DefaultInterruptHandler:
  3393                           
  3394                           	psect	text19
  3395     015A                     __ptext19:	
  3396 ;; *************** function _msTick *****************
  3397 ;; Defined at:
  3398 ;;		line 84 in file "app.c"
  3399 ;; Parameters:    Size  Location     Type
  3400 ;;		None
  3401 ;; Auto vars:     Size  Location     Type
  3402 ;;		None
  3403 ;; Return value:  Size  Location     Type
  3404 ;;                  1    wreg      void 
  3405 ;; Registers used:
  3406 ;;		wreg, status,2, status,0
  3407 ;; Tracked objects:
  3408 ;;		On entry : 0/0
  3409 ;;		On exit  : 0/0
  3410 ;;		Unchanged: 0/0
  3411 ;; Data sizes:     COMMON   BANK0   BANK1
  3412 ;;      Params:         0       0       0
  3413 ;;      Locals:         0       0       0
  3414 ;;      Temps:          0       0       0
  3415 ;;      Totals:         0       0       0
  3416 ;;Total ram usage:        0 bytes
  3417 ;; Hardware stack levels used: 1
  3418 ;; This function calls:
  3419 ;;		Nothing
  3420 ;; This function is called by:
  3421 ;;		_appInit
  3422 ;;		_TMR1_CallBack
  3423 ;; This function uses a non-reentrant model
  3424 ;;
  3425                           
  3426     015A                     _msTick:	
  3427                           ;psect for function _msTick
  3428                           
  3429     015A                     i1l1330:	
  3430                           ;incstack = 0
  3431                           ; Regs used in _msTick: [wreg+status,2+status,0]
  3432                           
  3433                           
  3434                           ;app.c: 85:     msTicks++;
  3435     015A  3001               	movlw	1
  3436     015B  0020               	movlb	0	; select bank0
  3437     015C  07A0               	addwf	_msTicks,f
  3438     015D  3000               	movlw	0
  3439     015E  3DA1               	addwfc	_msTicks+1,f
  3440     015F  3DA2               	addwfc	_msTicks+2,f
  3441     0160  3DA3               	addwfc	_msTicks+3,f
  3442     0161  3DA4               	addwfc	_msTicks+4,f
  3443     0162  3DA5               	addwfc	_msTicks+5,f
  3444     0163  3DA6               	addwfc	_msTicks+6,f
  3445     0164  3DA7               	addwfc	_msTicks+7,f
  3446     0165                     i1l386:
  3447     0165  0008               	return
  3448     0166                     __end_of_msTick:
  3449     007E                     btemp	set	126	;btemp
  3450     007E                     int$flags	set	126
  3451     007E                     wtemp0	set	126
  3452                           
  3453                           	psect	idloc
  3454                           
  3455                           ;Config register IDLOC0 @ 0x8000
  3456                           ;	unspecified, using default values
  3457     8000                     	org	32768
  3458     8000  3FFF               	dw	16383
  3459                           
  3460                           ;Config register IDLOC1 @ 0x8001
  3461                           ;	unspecified, using default values
  3462     8001                     	org	32769
  3463     8001  3FFF               	dw	16383
  3464                           
  3465                           ;Config register IDLOC2 @ 0x8002
  3466                           ;	unspecified, using default values
  3467     8002                     	org	32770
  3468     8002  3FFF               	dw	16383
  3469                           
  3470                           ;Config register IDLOC3 @ 0x8003
  3471                           ;	unspecified, using default values
  3472     8003                     	org	32771
  3473     8003  3FFF               	dw	16383
  3474                           
  3475                           	psect	config
  3476                           
  3477                           ;Config register CONFIG1 @ 0x8007
  3478                           ;	
  3479                           ;	FOSC = INTOSC, INTOSC oscillator; I/O function on CLKIN pin
  3480                           ;	Watchdog Timer Enable
  3481                           ;	WDTE = OFF, WDT disabled
  3482                           ;	Power-up Timer Enable
  3483                           ;	PWRTE = OFF, PWRT disabled
  3484                           ;	MCLR Pin Function Select
  3485                           ;	MCLRE = ON, MCLR/VPP pin function is MCLR
  3486                           ;	Flash Program Memory Code Protection
  3487                           ;	CP = OFF, Program memory code protection is disabled
  3488                           ;	Brown-out Reset Enable
  3489                           ;	BOREN = ON, Brown-out Reset enabled
  3490                           ;	Clock Out Enable
  3491                           ;	CLKOUTEN = OFF, CLKOUT function is disabled. I/O or oscillator function on the CLKOUT 
      +                          pin
  3492     8007                     	org	32775
  3493     8007  3FE4               	dw	16356
  3494                           
  3495                           ;Config register CONFIG2 @ 0x8008
  3496                           ;	Flash Memory Self-Write Protection
  3497                           ;	WRT = OFF, Write protection off
  3498                           ;	PLL Enable
  3499                           ;	PLLEN = OFF, 4x PLL disabled
  3500                           ;	Stack Overflow/Underflow Reset Enable
  3501                           ;	STVREN = ON, Stack Overflow or Underflow will cause a Reset
  3502                           ;	Brown-out Reset Voltage Selection
  3503                           ;	BORV = LO, Brown-out Reset Voltage (Vbor), low trip point selected.
  3504                           ;	Low Power Brown-out Reset enable bit
  3505                           ;	LPBOREN = OFF, LPBOR is disabled
  3506                           ;	Low-Voltage Programming Enable
  3507                           ;	LVP = ON, Low-voltage programming enabled
  3508     8008                     	org	32776
  3509     8008  3EFF               	dw	16127

Data Sizes:
    Strings     0
    Constant    0
    Data        4
    BSS         12
    Persistent  36
    Stack       0

Auto Spaces:
    Space          Size  Autos    Used
    COMMON           14      2      12
    BANK0            80      2      12
    BANK1            32      0       0

Pointer List with Targets:

    TMR1_SetInterruptHandler@InterruptHandler	PTR FTN()void  size(2) Largest target is 1
		 -> msTick(), TMR1_DefaultInterruptHandler(), 

    TMR1_InterruptHandler	PTR FTN()void  size(2) Largest target is 1
		 -> msTick(), Absolute function(), TMR1_DefaultInterruptHandler(), 


Critical Paths under _main in COMMON

    None.

Critical Paths under _INTERRUPT_InterruptManager in COMMON

    _TMR1_ISR->_TMR1_WriteTimer

Critical Paths under _main in BANK0

    _appInit->_TMR1_SetInterruptHandler
    _TMR1_Initialize->_TMR1_SetInterruptHandler

Critical Paths under _INTERRUPT_InterruptManager in BANK0

    None.

Critical Paths under _main in BANK1

    None.

Critical Paths under _INTERRUPT_InterruptManager in BANK1

    None.

Call Graph Tables:

 ---------------------------------------------------------------------------------
 (Depth) Function   	        Calls       Base Space   Used Autos Params    Refs
 ---------------------------------------------------------------------------------
 (0) _main                                                 0     0      0     422
                  _SYSTEM_Initialize
                    _TMR2_StartTimer
                         _appHandler
                            _appInit
 ---------------------------------------------------------------------------------
 (1) _appInit                                              0     0      0     211
           _TMR1_SetInterruptHandler
 ---------------------------------------------------------------------------------
 (1) _appHandler                                           1     1      0       0
                                              0 BANK0      1     1      0
 ---------------------------------------------------------------------------------
 (1) _TMR2_StartTimer                                      0     0      0       0
 ---------------------------------------------------------------------------------
 (1) _SYSTEM_Initialize                                    0     0      0     211
              _OSCILLATOR_Initialize
             _PIN_MANAGER_Initialize
                    _PWM1_Initialize
                    _PWM2_Initialize
                    _PWM3_Initialize
                    _TMR1_Initialize
                    _TMR2_Initialize
                     _WDT_Initialize
 ---------------------------------------------------------------------------------
 (2) _WDT_Initialize                                       0     0      0       0
 ---------------------------------------------------------------------------------
 (2) _TMR2_Initialize                                      0     0      0       0
 ---------------------------------------------------------------------------------
 (2) _TMR1_Initialize                                      0     0      0     211
           _TMR1_SetInterruptHandler
 ---------------------------------------------------------------------------------
 (2) _TMR1_SetInterruptHandler                             2     0      2     211
                                              0 BANK0      2     0      2
 ---------------------------------------------------------------------------------
 (2) _PWM3_Initialize                                      0     0      0       0
 ---------------------------------------------------------------------------------
 (2) _PWM2_Initialize                                      0     0      0       0
 ---------------------------------------------------------------------------------
 (2) _PWM1_Initialize                                      0     0      0       0
 ---------------------------------------------------------------------------------
 (2) _PIN_MANAGER_Initialize                               0     0      0       0
 ---------------------------------------------------------------------------------
 (2) _OSCILLATOR_Initialize                                0     0      0       0
 ---------------------------------------------------------------------------------
 Estimated maximum stack depth 2
 ---------------------------------------------------------------------------------
 (Depth) Function   	        Calls       Base Space   Used Autos Params    Refs
 ---------------------------------------------------------------------------------
 (4) _INTERRUPT_InterruptManager                           0     0      0     240
                           _TMR1_ISR
 ---------------------------------------------------------------------------------
 (5) _TMR1_ISR                                             0     0      0     240
                      _TMR1_CallBack
                    _TMR1_WriteTimer
 ---------------------------------------------------------------------------------
 (6) _TMR1_WriteTimer                                      2     0      2     240
                                              0 COMMON     2     0      2
 ---------------------------------------------------------------------------------
 (6) _TMR1_CallBack                                        0     0      0       0
                   Absolute function *
       _TMR1_DefaultInterruptHandler *
                             _msTick *
 ---------------------------------------------------------------------------------
 (7) _msTick                                               0     0      0       0
 ---------------------------------------------------------------------------------
 (7) _TMR1_DefaultInterruptHandler                         0     0      0       0
 ---------------------------------------------------------------------------------
 (7) Absolute function(Fake)                               0     0      0       0
 ---------------------------------------------------------------------------------
 Estimated maximum stack depth 7
 ---------------------------------------------------------------------------------

 Call Graph Graphs:

 _main (ROOT)
   _SYSTEM_Initialize
     _OSCILLATOR_Initialize
     _PIN_MANAGER_Initialize
     _PWM1_Initialize
     _PWM2_Initialize
     _PWM3_Initialize
     _TMR1_Initialize
       _TMR1_SetInterruptHandler
     _TMR2_Initialize
     _WDT_Initialize
   _TMR2_StartTimer
   _appHandler
   _appInit
     _TMR1_SetInterruptHandler

 _INTERRUPT_InterruptManager (ROOT)
   _TMR1_ISR
     _TMR1_CallBack
       Absolute function(Fake) *
       _TMR1_DefaultInterruptHandler *
       _msTick *
     _TMR1_WriteTimer

 Address spaces:
Name               Size   Autos  Total    Cost      Usage
BIGRAM              70      0       0       0        0.0%
NULL                 0      0       0       0        0.0%
CODE                 0      0       0       0        0.0%
BITCOMMON            E      0       0       1        0.0%
BITSFR0              0      0       0       1        0.0%
SFR0                 0      0       0       1        0.0%
COMMON               E      2       C       2       85.7%
BITSFR1              0      0       0       2        0.0%
SFR1                 0      0       0       2        0.0%
BITSFR2              0      0       0       3        0.0%
SFR2                 0      0       0       3        0.0%
STACK                0      0       0       3        0.0%
BITSFR3              0      0       0       4        0.0%
SFR3                 0      0       0       4        0.0%
ABS                  0      0      18       4        0.0%
BITBANK0            50      0       0       5        0.0%
BITSFR4              0      0       0       5        0.0%
SFR4                 0      0       0       5        0.0%
BANK0               50      2       C       6       15.0%
BITSFR5              0      0       0       6        0.0%
SFR5                 0      0       0       6        0.0%
BITBANK1            20      0       0       7        0.0%
BITSFR6              0      0       0       7        0.0%
SFR6                 0      0       0       7        0.0%
BANK1               20      0       0       8        0.0%
BITSFR7              0      0       0       8        0.0%
SFR7                 0      0       0       8        0.0%
BITSFR8              0      0       0       9        0.0%
SFR8                 0      0       0       9        0.0%
DATA                 0      0      18       9        0.0%
BITSFR9              0      0       0      10        0.0%
SFR9                 0      0       0      10        0.0%
BITSFR10             0      0       0      11        0.0%
SFR10                0      0       0      11        0.0%
BITSFR11             0      0       0      12        0.0%
SFR11                0      0       0      12        0.0%
BITSFR12             0      0       0      13        0.0%
SFR12                0      0       0      13        0.0%
BITSFR13             0      0       0      14        0.0%
SFR13                0      0       0      14        0.0%
BITSFR14             0      0       0      15        0.0%
SFR14                0      0       0      15        0.0%
BITSFR15             0      0       0      16        0.0%
SFR15                0      0       0      16        0.0%
BITSFR16             0      0       0      17        0.0%
SFR16                0      0       0      17        0.0%
BITSFR17             0      0       0      18        0.0%
SFR17                0      0       0      18        0.0%
BITSFR18             0      0       0      19        0.0%
SFR18                0      0       0      19        0.0%
BITSFR19             0      0       0      20        0.0%
SFR19                0      0       0      20        0.0%
BITSFR20             0      0       0      21        0.0%
SFR20                0      0       0      21        0.0%
BITSFR21             0      0       0      22        0.0%
SFR21                0      0       0      22        0.0%
BITSFR22             0      0       0      23        0.0%
SFR22                0      0       0      23        0.0%
BITSFR23             0      0       0      24        0.0%
SFR23                0      0       0      24        0.0%
BITSFR24             0      0       0      25        0.0%
SFR24                0      0       0      25        0.0%
BITSFR25             0      0       0      26        0.0%
SFR25                0      0       0      26        0.0%
BITSFR26             0      0       0      27        0.0%
SFR26                0      0       0      27        0.0%
BITSFR27             0      0       0      28        0.0%
SFR27                0      0       0      28        0.0%
BITSFR28             0      0       0      29        0.0%
SFR28                0      0       0      29        0.0%
BITSFR29             0      0       0      30        0.0%
SFR29                0      0       0      30        0.0%
BITSFR30             0      0       0      31        0.0%
SFR30                0      0       0      31        0.0%
BITSFR31             0      0       0      32        0.0%
SFR31                0      0       0      32        0.0%


Microchip Technology PIC Macro Assembler V2.40 build 20220703182018 
Symbol Table                                                                                   Wed Sep 07 14:13:02 2022

                                      l21 00F4                                        l40 018E  
                                      l37 0176                                        l83 00AA  
                                      l86 017D                                        l89 018B  
                                     l212 00DC                                       l118 00C3  
                                     l151 0183                                       l360 016E  
                                     l427 011E                                       l292 0109  
                                     l374 008D                                       l383 0091  
                                     l996 00DD                                       l998 00DF  
                                     u240 0054                                       u241 0053  
                                     u250 005C                                       u260 0065  
                                     u261 0064                                       u270 0072  
                                     _PR2 001B                                       u271 0071  
                                     u280 007D                                       u281 007C  
                                     u290 008A                                       u291 0089  
                         _timer1ReloadVal 0078                           _TMR2_Initialize 016F  
                                    l1000 00E2                                      l1002 00E7  
                                    l1010 016F                                      l1020 017A  
                                    l1004 00EB                                      l1012 0172  
                                    l1022 017B                                      l1006 00EE  
                                    l1030 00C9                                      l1014 0173  
                                    l1008 00F1                                      l1040 00CF  
                                    l1032 00CA                                      l1016 0174  
                                    l1024 0188                                      l1018 0177  
                                    l1050 00D9                                      l1042 00D1  
                                    l1034 00CB                                      l1026 00C4  
                                    l1106 018C                                      l1044 00D3  
                                    l1036 00CC                                      l1028 00C7  
                                    l1060 011B                                      l1052 010A  
                                    l1046 00D5                                      l1038 00CD  
                                    l1054 0115                                      l1070 0106  
                                    l1062 00F5                                      l1048 00D8  
                                    l1056 0117                                      l1064 0100  
                                    l1058 011A                                      l1066 0102  
                                    l1068 0105                                      l1420 00AB  
                                    l1430 00B6                                      l1422 00AD  
                                    l1432 00B8                                      l1424 00AF  
                                    l1440 0039                                      l1418 017E  
                                    l1434 00C0                                      l1426 00B1  
                                    l1450 0077                                      l1442 0054  
                                    l1428 00B2                                      l1436 0092  
                                    l1460 0090                                      l1452 007D  
                                    l1444 005F                                      l1454 008A  
                                    l1446 0065                                      l1438 0166  
                                    l1470 013A                                      l1462 0130  
                                    l1448 0072                                      l1456 008D  
                                    l1472 013B                                      l1464 0133  
                                    l1458 008F                                      l1466 0136  
                                    l1468 0139                   __end_of_PWM1_Initialize 00DD  
                                    _LATA 010C                                      _TMR2 001A  
                                    _WPUA 020C                                      _main 0130  
                                    fsr1h 0007                                      fsr1l 0006  
                                    btemp 007E                                      start 0019  
              ??_TMR1_SetInterruptHandler 007C                   __end_of_PWM2_Initialize 011F  
           __end_of_OSCILLATOR_Initialize 017E                                     ?_main 007A  
                                   _T1CON 0018                                     _T2CON 001C  
                                   i1l132 012F                                     i1l144 014C  
                                   i1l154 018F                                     i1l171 0017  
                                   i1l148 0159                                     i1l386 0165  
                                   u13_20 0124                                     u21_20 000A  
                                   u13_21 0123                                     u21_21 0009  
                                   u14_20 0154                                     u22_20 000F  
                                   u14_21 0153                                     u22_21 000E  
                                   u23_20 0014                                     u23_21 0013  
                                   _TMR1H 0017                                     _TMR1L 0016  
                                   _TRISA 008C                           __end_of_appInit 016F  
                        __end_of_TMR1_ISR 014D                            _WDT_Initialize 0188  
                 __end_of_PWM3_Initialize 010A                   __end_of_TMR1_Initialize 00C4  
                                   pclath 000A                                     status 0003  
                                   wtemp0 007E                           _TMR2_StartTimer 018C  
                         _TMR1_WriteTimer 011F                           __initialization 001A  
                            __end_of_main 0140                   __end_of_TMR2_Initialize 0177  
             ?_INTERRUPT_InterruptManager 007A                                    ??_main 007C  
                  __end_of_WDT_Initialize 018C                                    _APFCON 011D  
                                  _ANSELA 018C                                    _BORCON 0116  
                                  _T1GCON 0019                   TMR1_WriteTimer@timerVal 007A  
                        ?_PWM1_Initialize 007A                                    i1l1400 000A  
                                  i1l1330 015A                                    i1l1402 000F  
                                  i1l1404 0014                                    i1l1350 0124  
                                  i1l1360 012D                                    i1l1352 0125  
                                  _ODCONA 028C                                    i1l1362 014D  
                                  i1l1354 0127                                    i1l1370 0142  
                                  i1l1364 0154                                    i1l1356 0129  
                                  i1l1348 011F                                    i1l1358 012B  
                                  i1l1368 0140                                    i1l1398 0006  
                                  _INLVLA 038C                                    _OSCCON 0099  
                                  _WDTCON 0097      __end_of_TMR1_DefaultInterruptHandler 0190  
            _TMR1_DefaultInterruptHandler 018F                                    _msTick 015A  
                        ?_PWM2_Initialize 007A                                 ??_appInit 007C  
                            __pdataCOMMON 0074                           ?_WDT_Initialize 007A  
                 __end_of_TMR2_StartTimer 018F  TMR1_SetInterruptHandler@InterruptHandler 002A  
                 __end_of_TMR1_WriteTimer 0130                     __end_of_TMR1_CallBack 015A  
                        ?_TMR1_Initialize 007A                          ?_PWM3_Initialize 007A  
                       _SYSTEM_Initialize 0092                   __end_of__initialization 0036  
                      ?_SYSTEM_Initialize 007A                            __pcstackCOMMON 007A  
                     ??_SYSTEM_Initialize 007C                                 ?_TMR1_ISR 007A  
           ?_TMR1_DefaultInterruptHandler 007A                          ?_TMR2_Initialize 007A  
                          _OPTION_REGbits 0095                 __end_of_SYSTEM_Initialize 00AB  
                              __pbssBANK0 0020                                __pnvCOMMON 0078  
                              _appHandler 0039                                __pmaintext 0130  
                    appHandler@blueOutput 0076                                ??_TMR1_ISR 007C  
                              __pintentry 0004                                   ?_msTick 007A  
                                 _PWM1DCH 0D94                                   _PWM1DCL 0D93  
                                 _PWM2DCH 0DA4                                   _PWM2DCL 0DA3  
                                 _OSCTUNE 0098                                   _PWM3DCH 0DB4  
                                 _PWM3DCL 0DB3                                   _PWM1CON 0D9B  
                                 _PWM2CON 0DAB                                   _PWM3CON 0DBB  
                                 _PWM1OFH 0D98                                   _PWM1OFL 0D97  
                                 _PWM1PHH 0D92                                   _PWM2OFH 0DA8  
                                 _PWM1PHL 0D91                                   _PWM2OFL 0DA7  
                                 _PWM3OFH 0DB8                                   _PWM2PHH 0DA2  
                                 _PWM3OFL 0DB7                                   _PWM2PHL 0DA1  
                                 _PWM3PHH 0DB2                                   _PWM1PRH 0D96  
                                 _PWM3PHL 0DB1                                   _PWM1PRL 0D95  
                                 _PWM2PRH 0DA6                                   _PWM2PRL 0DA5  
                                 _PWM3PRH 0DB6                                   _PWM3PRL 0DB5  
                                 _SLRCONA 030C                          ?_TMR2_StartTimer 007A  
                        ?_TMR1_WriteTimer 007A                                   _appInit 0166  
                                 __ptext1 0166                                   __ptext2 0039  
                                 __ptext3 018C                                   __ptext4 0092  
                                 __ptext5 0188                                   __ptext6 016F  
                                 __ptext7 00AB                                   __ptext8 017E  
                                 __ptext9 00F5            ??_TMR1_DefaultInterruptHandler 007A  
                               _T1CONbits 0018                     _OSCILLATOR_Initialize 0177  
                               _T2CONbits 001C                                   _msTicks 0020  
                ??_PIN_MANAGER_Initialize 007C                 ?_TMR1_SetInterruptHandler 002A  
                    end_of_initialization 0036                               ?_appHandler 007A  
                               _PWM1LDCON 0D9F                                 _PWM2LDCON 0DAF  
                               _PWM1OFCON 0DA0                                 _PWM3LDCON 0DBF  
                               _PWM2OFCON 0DB0                                 _PWM3OFCON 0DC0  
                        ??_WDT_Initialize 007C                             __pidataCOMMON 0184  
                  ?_OSCILLATOR_Initialize 007A                            __end_of_msTick 0166  
                     start_initialization 001A                             _PWM1LDCONbits 0D9F  
                           _PWM2LDCONbits 0DAF                             _PWM3LDCONbits 0DBF  
                                ??_msTick 007A                               __pbssCOMMON 0070  
                               ___latbits 0000                             __pcstackBANK0 002A  
                               __pnvBANK0 0028                    _PIN_MANAGER_Initialize 00DD  
        __end_of_TMR1_SetInterruptHandler 0184                                  ?_appInit 007A  
                       ??_PWM1_Initialize 007C              ??_INTERRUPT_InterruptManager 007C  
                     appHandler@redOutput 0072                             _TMR1_CallBack 014D  
                       ??_PWM2_Initialize 007C                                  _LATAbits 010C  
                            ??_appHandler 002A                              appHandler@up 0070  
                                _PIE1bits 0091                                  _PIR1bits 0011  
                                _PWM1INTE 0D9C                                  _PWM1INTF 0D9D  
                                _PWM2INTE 0DAC                                  _PWM2INTF 0DAD  
                                _PWM3INTE 0DBC                                  _PWM3INTF 0DBD  
                                _PWM1TMRH 0D9A                                  _PWM1TMRL 0D99  
                                _PWM2TMRH 0DAA                                  _PWM2TMRL 0DA9  
                                _PWM3TMRH 0DBA                                  _PWM3TMRL 0DB9  
                                _TMR1_ISR 0140                         ??_TMR1_Initialize 007C  
                       ??_PWM3_Initialize 007C                     appHandler@greenOutput 0074  
                      __end_of_appHandler 0092                            ?_TMR1_CallBack 007A  
                       ??_TMR2_Initialize 007C                              _PWM1INTFbits 0D9D  
                            _PWM2INTFbits 0DAD                              _PWM3INTFbits 0DBD  
                 ??_OSCILLATOR_Initialize 007C                  _TMR1_SetInterruptHandler 017E  
                   _TMR1_InterruptHandler 0028                                  __ptext10 010A  
                                __ptext11 00C4                                  __ptext12 00DD  
                                __ptext13 0177                                _T1GCONbits 0019  
                                __ptext15 0140                                  __ptext16 011F  
                                __ptext17 014D                                  __ptext18 018F  
                                __ptext19 015A                                  int$flags 007E  
                       ??_TMR2_StartTimer 007C        __end_of_INTERRUPT_InterruptManager 0019  
              _INTERRUPT_InterruptManager 0004                         ??_TMR1_WriteTimer 007C  
                              _INTCONbits 000B                               _PWM1CONbits 0D9B  
                             _PWM2CONbits 0DAB                               _PWM3CONbits 0DBB  
                         ??_TMR1_CallBack 007A                                  intlevel1 0000  
                 ?_PIN_MANAGER_Initialize 007A                           _PWM1_Initialize 00C4  
                              _PWM1CLKCON 0D9E                                _PWM2CLKCON 0DAE  
                              _PWM3CLKCON 0DBE                           _PWM2_Initialize 010A  
          __end_of_PIN_MANAGER_Initialize 00F5                           _TMR1_Initialize 00AB  
                         _PWM3_Initialize 00F5  
